ccopy_reg
_reconstructor
p0
(cgensim.corpora.dictionary
Dictionary
p1
c__builtin__
object
p2
Ntp3
Rp4
(dp5
S'num_docs'
p6
I414
sS'token2id'
p7
(dp8
Vlimited
p9
I2967
sVtransitions
p10
I1308
sVreallocations
p11
I2370
sVsimilarity
p12
I799
sVconsolidated
p13
I3516
sVdesirable
p14
I884
sVfour
p15
I1862
sVfacilities
p16
I2257
sVentropy
p17
I2067
sVasian
p18
I1172
sVcontroversial
p19
I718
sVparameterization
p20
I2485
sVsystematic
p21
I2841
sVintegrity
p22
I2187
sVpayoff
p23
I297
sVrelationships
p24
I2274
sVelectricity
p25
I550
sVcrises
p26
I781
sVposteriori
p27
I2915
sVpresents
p28
I2407
sVnominal
p29
I3261
sVswap
p30
I1046
sVmaster
p31
I2348
sVworth
p32
I2604
sVconjecture
p33
I784
sVrisk
p34
I159
sVdynamic
p35
I696
sVrise
p36
I308
sVaccelerator
p37
I2319
sVsellers
p38
I1113
sVreplication
p39
I1038
sVupdates
p40
I3485
sVgovern
p41
I1610
sVfrailty
p42
I2886
sVdebtrank
p43
I832
sVconvexity
p44
I93
sVcme
p45
I3454
sVmle
p46
I1642
sVcompanies
p47
I2336
sVsolution
p48
I85
sVviable
p49
I3434
sVvector
p50
I1373
sVannounced
p51
I3582
sVindices
p52
I567
sVmarkov
p53
I941
sVdcca
p54
I3438
sVmartingale
p55
I943
sVdegeneracy
p56
I1232
sVforce
p57
I1165
sVpragmatic
p58
I2613
sVdisciplines
p59
I2627
sVconsistent
p60
I365
sVfairness
p61
I2092
sVestimates
p62
I1824
sVdirect
p63
I2375
sVornstein
p64
I1018
sVbudget
p65
I2045
sVapproximation
p66
I288
sVsecond
p67
I498
sVexchangeable
p68
I2831
sVrwandan
p69
I3354
sVdetrended
p70
I543
sVestimated
p71
I556
sVquite
p72
I3579
sVeven
p73
I3290
sVestablished
p74
I3013
sVerrors
p75
I1032
sVfiltration
p76
I3468
sVpreferences
p77
I400
sVdistortionary
p78
I2904
sVspecification
p79
I2835
sVselected
p80
I1823
sVlookback
p81
I1170
sVprofitability
p82
I187
sVcars
p83
I1913
sVrequired
p84
I2840
sVnet
p85
I1246
sVupward
p86
I1958
sVshocks
p87
I602
sVcoefficient
p88
I1024
sVbi
p89
I2951
sVprecatastophic
p90
I1678
sVnotions
p91
I1405
sVjarrow
p92
I926
sVdow
p93
I1502
sVincentives
p94
I1377
sVmen
p95
I1607
sVresidual
p96
I2129
sVatoms
p97
I1954
sVstopping
p98
I486
sVasymmetry
p99
I581
sVprotection
p100
I2359
sVgranularity
p101
I1854
sVactive
p102
I1198
sVpath
p103
I1754
sVmarchenko
p104
I2467
sVcontraction
p105
I2918
sVobtained
p106
I632
sVcyclical
p107
I2199
sVbalance
p108
I846
sVglm
p109
I1378
sVauction
p110
I785
sVrecursive
p111
I3651
sVeconomics
p112
I1116
sVregulators
p113
I2911
sVpastur
p114
I2468
sVcredit
p115
I851
sVbespoke
p116
I3246
sVsymmetrical
p117
I666
sVsuitable
p118
I667
sVchanges
p119
I421
sVcancellation
p120
I361
sVmutual
p121
I1731
sVlevies
p122
I2891
sVoffs
p123
I2358
sVprojection
p124
I1365
sVclassification
p125
I1204
sVmobility
p126
I1876
sVdiscontinuous
p127
I2423
sVunitary
p128
I3286
sVmoral
p129
I3626
sVnonlocal
p130
I2917
sVtotal
p131
I925
sVlandscape
p132
I1096
sVderivatives
p133
I466
sVesscher
p134
I3057
sVexceedance
p135
I1379
sVcompensation
p136
I3636
sVlikelihood
p137
I1647
sVvoters
p138
I2651
sVsemimartingale
p139
I927
sVnegative
p140
I249
sVaxioms
p141
I3052
sVdiscrepancies
p142
I3543
sVdefiniteness
p143
I2517
sVcall
p144
I811
sVasset
p145
I26
sVgarch
p146
I3180
sVdistortions
p147
I2902
sVstrike
p148
I813
sVdefaultable
p149
I2900
sVprotter
p150
I3467
sVtype
p151
I373
sVgrigelionis
p152
I3070
sVarma
p153
I1322
sVlitigation
p154
I3090
sVpreparation
p155
I2579
sVskewness
p156
I3501
sVpopulations
p157
I3119
sVcomposite
p158
I727
sVnaive
p159
I1808
sVwatts
p160
I3147
sVcurvature
p161
I102
sVmalthusian
p162
I3352
sVcycles
p163
I2231
sVstochastic
p164
I109
sVhold
p165
I2206
sVprophecies
p166
I3101
sVmf
p167
I1061
sVinnovations
p168
I3612
sVmc
p169
I171
sVcharacterize
p170
I2565
sVsetup
p171
I1523
sVgasoline
p172
I2254
sVtheories
p173
I2644
sVconcepts
p174
I1845
sVmonitoring
p175
I2406
sVrevenues
p176
I1148
sVroot
p177
I1313
sVhyperinflation
p178
I2827
sVaddictive
p179
I3280
sVquintile
p180
I182
sVrenormalization
p181
I3319
sVnondominated
p182
I1560
sVgive
p183
I1851
sVrelativistic
p184
I2630
sVhousehold
p185
I1462
sVorganized
p186
I1606
sVimplementations
p187
I1953
sVnoises
p188
I3436
sVcurrency
p189
I353
sVdegenerate
p190
I2139
sVamplitudes
p191
I3079
sVfeasible
p192
I1371
sVabsolute
p193
I1930
sVend
p194
I1293
sVrecovery
p195
I1049
sVinhabitants
p196
I3128
sVdamage
p197
I433
sVbraids
p198
I1483
sVmachine
p199
I1757
sVmethodology
p200
I289
sVholonomy
p201
I2558
sVadjacent
p202
I2356
sVsignificance
p203
I2216
sVanswer
p204
I623
sVgate
p205
I1486
sVpreferable
p206
I1231
sVinsurees
p207
I2344
sVmassive
p208
I2020
sVoscillatory
p209
I1104
sVregional
p210
I603
sVdescription
p211
I714
sVthermodynamic
p212
I3321
sVearlier
p213
I999
sVlump
p214
I2400
sVmicrostate
p215
I2089
sVtertile
p216
I212
sVgatheral
p217
I1897
sVlaw
p218
I266
sVmeaningful
p219
I2992
sVparallel
p220
I2859
sVtypes
p221
I383
sVpurchase
p222
I1237
sVattempt
p223
I3103
sVthird
p224
I1312
sVbootstrap
p225
I2117
sVbrunick
p226
I2591
sVgreek
p227
I2511
sVcomplexity
p228
I175
sVdavies
p229
I128
sVjungle
p230
I2882
sVcorrelation
p231
I1071
sVlambda
p232
I1259
sVwing
p233
I2531
sVgreed
p234
I1121
sVorigin
p235
I1133
sVgeographical
p236
I3422
sVinterpretation
p237
I824
sVfeedback
p238
I389
sVconsent
p239
I3345
sVvary
p240
I1713
sVdrawdown
p241
I238
sVinnovative
p242
I2422
sVmonotonicity
p243
I2200
sVclts
p244
I2782
sVfit
p245
I984
sVdirectional
p246
I645
sVhighlights
p247
I694
sVseasonality
p248
I1267
sVexpectations
p249
I2482
sVexhibits
p250
I1363
sVanticipations
p251
I1801
sVkarasinski
p252
I2734
sVclt
p253
I2790
sVkappa_
p254
I2079
sVerlang
p255
I3647
sVfin
p256
I1347
sVeasier
p257
I2795
sVmaximal
p258
I1058
sVdiseases
p259
I2012
sVcombination
p260
I1406
sVlambert
p261
I1106
sVsafe
p262
I2447
sVband
p263
I2778
sVbang
p264
I1513
sVrepulsive
p265
I1812
sVeffects
p266
I836
sVcautious
p267
I2721
sVmultidimensional
p268
I446
sVhierarchies
p269
I3540
sVbank
p270
I775
sVcompetitiveness
p271
I1114
sVeigenvalue
p272
I818
sVmcmc
p273
I2460
sVappealing
p274
I3339
sVarrow
p275
I2091
sVfitness
p276
I2875
sVintransitivity
p277
I2640
sVside
p278
I2263
sVlasting
p279
I1309
sVschemes
p280
I2612
sVfinancial
p281
I8
sVassortativity
p282
I2162
sVseries
p283
I716
sVprinciples
p284
I825
sVsemiclassical
p285
I2740
sVaxiomatizations
p286
I1396
sVcurrencies
p287
I2120
sVtrading
p288
I53
sVmethodological
p289
I2756
sVnetwork
p290
I597
sVdriving
p291
I1167
sVbullishness
p292
I3553
sVgradient
p293
I2135
sVrestricted
p294
I571
sVpercolation
p295
I2329
sVcrucial
p296
I854
sVcontent
p297
I1372
sVcombinatorial
p298
I789
sVsafety
p299
I2060
sVsmi
p300
I2232
sVinterconnectedness
p301
I3166
sVsmc
p302
I2412
sVscalings
p303
I305
sVfoundation
p304
I1847
sVnumerical
p305
I351
sVlinear
p306
I32
sVbarrier
p307
I963
sVclearinghouse
p308
I2850
sVfree
p309
I379
sVstandard
p310
I161
sVmeasurable
p311
I3624
sVaforesaid
p312
I2834
sVetfs
p313
I312
sVallocation
p314
I698
sVevcss
p315
I2253
sVstochasticity
p316
I1117
sVestimate
p317
I112
sVgameplay
p318
I1547
sVponzi
p319
I2325
sVdegeneracies
p320
I2111
sVbates
p321
I3556
sVhull
p322
I2737
sVdays
p323
I1299
sVfilter
p324
I1685
sVmagnetocaloric
p325
I3323
sVsignature
p326
I1978
sVspde
p327
I419
sVspeeds
p328
I280
sVuser
p329
I2106
sVseparable
p330
I2866
sVindustrial
p331
I1481
sVmathbf
p332
I2954
sVfeatures
p333
I1001
sVeconomists
p334
I423
sVperilous
p335
I3329
sVdynkin
p336
I3395
sVprimary
p337
I1003
sVrank
p338
I1226
sVexecutions
p339
I1526
sVaggregate
p340
I1814
sVdjia
p341
I3551
sVdownside
p342
I1863
sVrbsde
p343
I3662
sVelectronic
p344
I1011
sVfeedbacks
p345
I2940
sVmonotonous
p346
I3294
sVtoy
p347
I849
sVhedging
p348
I350
sVservice
p349
I2893
sVopportunity
p350
I2987
sVtop
p351
I2002
sVequilibria
p352
I1341
sVcentripetal
p353
I3254
sVperturbations
p354
I2054
sVrates
p355
I471
sVobservations
p356
I1718
sVlinearities
p357
I1967
sVlivelihoods
p358
I2306
sVdraft
p359
I2763
sVpercentage
p360
I3168
sVeuro
p361
I1376
sVexposures
p362
I1747
sVurban
p363
I3248
sVcollapse
p364
I3376
sVcentered
p365
I3211
sVheterogenous
p366
I1872
sVtool
p367
I1680
sVdiversified
p368
I655
sVzeroth
p369
I2543
sVjapanese
p370
I3164
sVpredictable
p371
I57
sVdefaulted
p372
I2901
sVpeculiar
p373
I2057
sVcoverages
p374
I2343
sVdistance
p375
I1816
sVtarget
p376
I968
sVroles
p377
I3488
sVdivisible
p378
I1352
sVapproximations
p379
I1115
sVdatabase
p380
I2810
sVtree
p381
I2416
sVlikely
p382
I1993
sVfinal
p383
I2719
sVregulator
p384
I531
sVmatter
p385
I1617
sVsolomon
p386
I2338
sVclasses
p387
I1010
sVsoner
p388
I1633
sVhistorical
p389
I1207
sVtimescales
p390
I1304
sVpowers
p391
I2569
sVdisplays
p392
I2165
sVseminal
p393
I1164
sVbridge
p394
I133
sVfashion
p395
I3404
sV10min
p396
I3459
sVmodern
p397
I140
sVspectrum
p398
I1139
sVrigorous
p399
I296
sVgraphics
p400
I3229
sVsocio
p401
I2299
sVmanner
p402
I2271
sVincrement
p403
I2046
sVunaffected
p404
I951
sVdozen
p405
I1730
sVquadrature
p406
I3314
sVstrength
p407
I1340
sVrepayment
p408
I3619
sVconvenient
p409
I1239
sVlatter
p410
I808
sVisolated
p411
I2981
sVthorough
p412
I3372
sVindexes
p413
I720
sVwendell
p414
I3095
sVfitting
p415
I584
sVpractices
p416
I3113
sVfrictionless
p417
I2273
sVforces
p418
I3255
sVeffectiveness
p419
I730
sVconducive
p420
I2836
sVprohibition
p421
I2622
sVcapitalization
p422
I1222
sVtransactions
p423
I1567
sVobject
p424
I2177
sVviscosity
p425
I1524
sVmetrics
p426
I2726
sVexponentials
p427
I3046
sVoptimized
p428
I911
sVpreset
p429
I1562
sVclaims
p430
I2282
sVphase
p431
I1093
sVbse
p432
I3505
sVunorthodox
p433
I3620
sVinconsistency
p434
I1564
sVclearance
p435
I2860
sVsnooping
p436
I740
sVtanzania
p437
I3361
sVpartition
p438
I578
sVflow
p439
I529
sVbel81
p440
I125
sVfragility
p441
I3587
sVyang
p442
I1349
sVprinciple
p443
I1085
sVenterprise
p444
I3122
sVleft
p445
I60
sVconsumer
p446
I690
sVnotion
p447
I279
sVincomplete
p448
I422
sVreserve
p449
I1161
sVopinions
p450
I2649
sVitem
p451
I1574
sVrandom
p452
I495
sVattempts
p453
I2298
sVgauge
p454
I72
sVsolutions
p455
I290
sVconstituent
p456
I3654
sVkeywords
p457
I864
sVsubtle
p458
I3638
sVanalogue
p459
I1927
sVendowment
p460
I2110
sVavailability
p461
I2262
sVhobson
p462
I1178
sVstanzl
p463
I3171
sVlatent
p464
I2000
sVledoit
p465
I905
sVimplementation
p466
I507
sVlpp13
p467
I84
sVdebts
p468
I759
sVaccelerate
p469
I3217
sVabs
p470
I3496
sVscreening
p471
I681
sVrich
p472
I992
sVadequate
p473
I2151
sVnonstationarity
p474
I3369
sVcontinuity
p475
I1890
sVdl
p476
I1944
sVmixture
p477
I2419
sVdi
p478
I2234
sVconduct
p479
I2194
sVstop
p480
I3389
sVfluid
p481
I1809
sVneoclassical
p482
I3017
sVwatson
p483
I3191
sVlenders
p484
I837
sVreport
p485
I1741
sVdt
p486
I2081
sVvolatility
p487
I115
sVemd
p488
I3641
sVruns
p489
I268
sVpearson
p490
I1748
sVcountries
p491
I1072
sVfields
p492
I284
sVflesaker
p493
I1638
sVcommercialization
p494
I3140
sVbad
p495
I2984
sVanalytical
p496
I782
sVfertility
p497
I3365
sVautomatic
p498
I575
sVthanks
p499
I3077
sVetin
p500
I3465
sVdeflator
p501
I3473
sVspillovers
p502
I2207
sVfair
p503
I1034
sVhabit
p504
I3276
sVsensitivity
p505
I139
sVkolmogorov
p506
I568
sVemergent
p507
I3235
sVobserved
p508
I1006
sVanalytics
p509
I2801
sVnum
p510
I1925
sVradius
p511
I2474
sVresult
p512
I73
sVtaxpayer
p513
I2596
sVcorrupt
p514
I915
sVincorporating
p515
I1101
sVtechniques
p516
I148
sVco2
p517
I3223
sVcapacity
p518
I2302
sVexponent
p519
I1135
sVinappropriate
p520
I2186
sVerez
p521
I3059
sVpatients
p522
I2019
sVartificial
p523
I2044
sVsymmetric
p524
I89
sVprotected
p525
I2316
sVkaratzas
p526
I1130
sVcooperation
p527
I3628
sVconceptual
p528
I513
sVwise
p529
I3011
sVtolerance
p530
I2048
sVdiscovery
p531
I2805
sVwage
p532
I331
sVherding
p533
I2346
sVterms
p534
I31
sVnature
p535
I1065
sVweak
p536
I208
sVcovariation
p537
I2864
sVwu
p538
I3000
sVwt
p539
I2238
sVextent
p540
I607
sVupfront
p541
I2260
sVcarbon
p542
I445
sVconvertible
p543
I3398
sVdebt
p544
I772
sVtopology
p545
I937
sVsuggested
p546
I525
sVhours
p547
I2499
sVclimate
p548
I448
sVplanner
p549
I2249
sVbellaiche
p550
I119
sVirregular
p551
I3394
sVrefinement
p552
I1934
sVcountry
p553
I1884
sVill
p554
I420
sVuncertainty
p555
I450
sVamortized
p556
I2772
sVplayers
p557
I1836
sVsemiparametric
p558
I2452
sVdisastrous
p559
I2059
sVgames
p560
I1843
sVsubordinating
p561
I3062
sVrawls
p562
I2093
sVvariance
p563
I387
sVcontribution
p564
I345
sVadapted
p565
I1287
sVextractable
p566
I585
sVbehaviors
p567
I796
sVvvix
p568
I2459
sVinterrelations
p569
I2670
sVpolynomial
p570
I2352
sVtestable
p571
I672
sVsamuelson
p572
I2687
sVcode
p573
I1479
sVnadtochiy
p574
I370
sVfra
p575
I3482
sVbasis
p576
I577
sVunion
p577
I2572
sVthree
p578
I2043
sVhamilton
p579
I2035
sVextraction
p580
I1425
sVmitigation
p581
I3299
sVpropto
p582
I1102
sVbasic
p583
I437
sVexpected
p584
I1217
sVflexible
p585
I1157
sVmonotonic
p586
I3396
sVformalized
p587
I1848
sVboard
p588
I3538
sVborrowers
p589
I839
sVergodic
p590
I931
sVfamilies
p591
I3188
sVcations
p592
I2868
sVquantities
p593
I1965
sVworker
p594
I1608
sVcoherent
p595
I2799
sV167
p596
I1132
sVland
p597
I3293
sVeast
p598
I3355
sVsubmissions
p599
I2196
sVeconomies
p600
I662
sVaim
p601
I1887
sVeuclidean
p602
I2739
sVnear
p603
I820
sVabrupt
p604
I2646
sVdashboard
p605
I2775
sVmaxmin
p606
I1152
sVaid
p607
I3028
sVproperty
p608
I938
sVprocedure
p609
I325
sVpide
p610
I2586
sVpessimistic
p611
I2501
sVvulnerability
p612
I1914
sVphenomenological
p613
I3320
sVexpenses
p614
I3215
sVii
p615
I237
sVplayer
p616
I1536
sVcant
p617
I2463
sVexit
p618
I3390
sVcone
p619
I2621
sVcounterexamples
p620
I1984
sVcomparative
p621
I1215
sVie
p622
I2757
sVlogstable
p623
I3001
sVseverity
p624
I1641
sVunbounded
p625
I2784
sVthings
p626
I1711
sVcumulative
p627
I1240
sVstelzer
p628
I3061
sVcomplex
p629
I436
sVquant
p630
I1206
sVharmony
p631
I1331
sVsubperiod
p632
I202
sVelliott
p633
I3378
sVseveral
p634
I814
sVagglomeration
p635
I3251
sVcouple
p636
I2374
sVeuropean
p637
I306
sVindependent
p638
I980
sVdrawup
p639
I255
sVcounterparty
p640
I1692
sVpeaks
p641
I2245
sVkushner
p642
I1444
sVhypersensitive
p643
I2052
sVsocial
p644
I456
sVnig
p645
I1270
sVcounterparts
p646
I309
sVhand
p647
I1578
sVwaterfall
p648
I2858
sVownership
p649
I3593
sVswaption
p650
I3010
sVspreads
p651
I2943
sVthoughts
p652
I2770
sVcycle
p653
I1473
sVprescribed
p654
I3209
sVcalmar
p655
I1682
sVfourier
p656
I2222
sVmaximizing
p657
I2395
sVscenario
p658
I850
sVprograms
p659
I3359
sVkyle
p660
I3443
sVsectoral
p661
I292
sVacademic
p662
I3613
sVhaircuts
p663
I2905
sVcontact
p664
I1037
sVqualities
p665
I1710
sVquantitative
p666
I583
sVparadigm
p667
I2292
sVcorporate
p668
I2965
sVinvestments
p669
I858
sVmaxima
p670
I1076
sVseasonal
p671
I2685
sVunified
p672
I2624
sVdiffusions
p673
I1892
sVprotocol
p674
I3033
sVpallavicini
p675
I2490
sVproposed
p676
I618
sVunemployment
p677
I2372
sVunfair
p678
I2088
sVsequestration
p679
I3297
sVquotes
p680
I2179
sVkrugman
p681
I1799
sVhuman
p682
I328
sVfacts
p683
I2350
sVeigenstates
p684
I3529
sVstratonovich
p685
I1450
sVprevious
p686
I644
sVunique
p687
I17
sVmonitored
p688
I1174
sVcatalytic
p689
I953
sVinstance
p690
I2879
sV1sec
p691
I3453
sVsimilarities
p692
I1733
sVevidences
p693
I3574
sVpassive
p694
I1195
sVtopical
p695
I1572
sVspread
p696
I1529
sVcollections
p697
I2761
sVriskiness
p698
I3272
sVeasy
p699
I933
sVtechnological
p700
I3145
sVformal
p701
I3100
sVrescaled
p702
I3483
sVcramer
p703
I2869
sVdelimitations
p704
I2970
sVsurvival
p705
I1763
sVposed
p706
I411
sVpossible
p707
I36
sVcaps
p708
I2363
sVindicative
p709
I3456
sVfontbona
p710
I3494
sVshadow
p711
I1494
sVarai
p712
I1021
sVrumor
p713
I2389
sVdesire
p714
I3331
sVanticipation
p715
I1797
sVbistable
p716
I1344
sVvoting
p717
I2655
sVarrivals
p718
I3176
sVspecific
p719
I124
sVinformative
p720
I2727
sVtransform
p721
I2073
sVsteps
p722
I2411
sVstylised
p723
I3627
sVsparse
p724
I1437
sVarbitrary
p725
I1704
sVcomponentwise
p726
I2787
sVbucket
p727
I2758
sVsecurity
p728
I1281
sVsignal
p729
I2176
sVbeneficial
p730
I2275
sVdualities
p731
I1351
sVhierarchy
p732
I1970
sVpeople
p733
I1835
sVdigraphs
p734
I1703
sVescape
p735
I3349
sVindirect
p736
I2167
sVvovk
p737
I1176
sVgolub
p738
I3379
sVprowess
p739
I3137
sVsecurities
p740
I738
sVentropic
p741
I1796
sVbottom
p742
I2326
sVinvestigations
p743
I1490
sVperiphery
p744
I1734
sVyields
p745
I1554
sVparticipation
p746
I2577
sVcore
p747
I1742
sValgorithmic
p748
I1306
sVminimization
p749
I961
sVdeflation
p750
I1468
sVmarketing
p751
I627
sVstatistician
p752
I628
sVillustration
p753
I2382
sVconstructive
p754
I2345
sVdiscount
p755
I935
sVrestructuring
p756
I2896
sVbinomial
p757
I1143
sVsubstitution
p758
I3555
sVhadamard
p759
I1493
sVpost
p760
I2681
sVmanufacturing
p761
I2443
sVsuper
p762
I1177
sVkantorovich
p763
I3029
sVmeyer
p764
I1626
sVnewspapers
p765
I2197
sVmonths
p766
I224
sVanomalous
p767
I2066
sVnonvanishing
p768
I1556
sVannualized
p769
I193
sVcanonic
p770
I1553
sVhorizon
p771
I702
sVconsiderations
p772
I2628
sVraised
p773
I1690
sVdilemma
p774
I2626
sVmarkovian
p775
I917
sVpresence
p776
I235
sVcivil
p777
I3088
sVpuzzle
p778
I1328
sVsuccessive
p779
I1069
sVsom
p780
I1583
sVbound
p781
I103
sVbalances
p782
I3519
sVremarks
p783
I1408
sVsos
p784
I1616
sVright
p785
I1
sVdoctrine
p786
I3089
sVbalanced
p787
I1189
sVattrition
p788
I2998
sVdowd
p789
I1770
sVunambiguous
p790
I3512
sVpreemption
p791
I2995
sVdeal
p792
I2907
sVswaptions
p793
I2946
sVtopologies
p794
I831
sVsupport
p795
I2087
sVinitial
p796
I403
sVapproximate
p797
I1369
sVpayment
p798
I1288
sVfraction
p799
I1229
sVaccords
p800
I3050
sVdb_
p801
I2078
sVoverhang
p802
I1463
sVsynthesis
p803
I2733
sVform
p804
I99
sVoffer
p805
I3021
sVepsilon
p806
I260
sVspirit
p807
I3417
sVdifferences
p808
I160
sVanalyse
p809
I1740
sVfeinstein
p810
I2919
sVfailure
p811
I1227
sVheat
p812
I105
sVpagerank
p813
I2817
sVincorporation
p814
I1681
sVcatalyst
p815
I964
sVgranger
p816
I2211
sVsurrender
p817
I1510
sVtrue
p818
I1761
sVberk
p819
I1849
sVabsent
p820
I2049
sValgiers
p821
I3249
sVportions
p822
I1859
sVversions
p823
I574
sVassessment
p824
I2456
sVattached
p825
I1702
sVmaximum
p826
I1643
sVdiscretized
p827
I1756
sVmtrv
p828
I1413
sVminor
p829
I3576
sVcaplet
p830
I2942
sVheterotic
p831
I1856
sVexamples
p832
I355
sVmedication
p833
I1986
sVshin
p834
I2749
sVinclusive
p835
I860
sVimplications
p836
I225
sVabstract
p837
I326
sVevidence
p838
I216
sVsimulations
p839
I177
sVaccounting
p840
I827
sVdistributions
p841
I242
sVdealer
p842
I2857
sVphysical
p843
I293
sVcirculatory
p844
I1997
sVeventual
p845
I2996
sVfeynman
p846
I2741
sVna
p847
I3054
sVne
p848
I87
sVreality
p849
I434
sVperturbative
p850
I2746
sVsuccessful
p851
I1296
sVinterested
p852
I762
sVrole
p853
I599
sVholding
p854
I201
sVpapers
p855
I993
sVtest
p856
I372
sVdimensionality
p857
I2503
sVnt
p858
I2143
sVkullback
p859
I1838
sVnode
p860
I2928
sVvolatilities
p861
I307
sVcreditrisk
p862
I2011
sVinsolvency
p863
I766
sVkva
p864
I2852
sVconvincing
p865
I378
sVexported
p866
I2874
sVvariable
p867
I110
sVdav88
p868
I113
sVhawkes
p869
I3041
sVjones
p870
I1495
sVindebtness
p871
I2894
sVannuity
p872
I1514
sVinterval
p873
I1026
sVpseudo
p874
I2451
sVdaily
p875
I1004
sVcohesion
p876
I2575
sVobservables
p877
I2342
sVbackward
p878
I487
sVdecision
p879
I2428
sVprofits
p880
I638
sVprecise
p881
I1689
sVconcept
p882
I1391
sVdior
p883
I3409
sVremarkable
p884
I1325
sVrating
p885
I3151
sVequalities
p886
I2535
sVglobal
p887
I158
sVbrownian
p888
I141
sVfocus
p889
I2665
sVlivelihood
p890
I2296
sVnations
p891
I2870
sVroy
p892
I2058
sVmild
p893
I117
sVcaglad
p894
I9
sVcomputation
p895
I501
sVupsilon
p896
I1258
sVcovered
p897
I3269
sVabundant
p898
I1191
sVdpxa
p899
I3366
sVamplification
p900
I829
sVdepend
p901
I806
sVzone
p902
I954
sVwalrasian
p903
I2051
sVshrinkage
p904
I906
sVtechnique
p905
I151
sVpassage
p906
I2657
sVenvironment
p907
I1832
sVquasi
p908
I153
sVpassu
p909
I3264
sVanalogous
p910
I2939
sViacv
p911
I2762
sVabundance
p912
I3652
sVstring
p913
I1604
sVadvantage
p914
I1266
sVfrequencies
p915
I1035
sVlrm
p916
I2223
sVsponsors
p917
I1384
sVchoice
p918
I380
sVliability
p919
I2920
sVanonymous
p920
I1937
sVexact
p921
I116
sVheston
p922
I315
sVminute
p923
I1575
sVpartitions
p924
I1941
sVdisequilibrium
p925
I1472
sVlevel
p926
I612
sVpermits
p927
I3117
sVdisease
p928
I1886
sVskewed
p929
I1652
sVinsurers
p930
I3116
sVdiscrete
p931
I693
sVdifferential
p932
I482
sVdefaults
p933
I1746
sVround
p934
I3042
sVsectorial
p935
I3504
sVupper
p936
I74
sVunexpected
p937
I640
sVoccurrence
p938
I1725
sVfindings
p939
I137
sVinsignificant
p940
I184
sVtrend
p941
I1137
sVmaximization
p942
I1354
sVprediction
p943
I540
sVsign
p944
I2473
sVgeneralisations
p945
I3416
sVcost
p946
I429
sVscarcity
p947
I592
sVcorner
p948
I2476
sVglidepaths
p949
I3205
sVtargets
p950
I3448
sVspectral
p951
I547
sVsubadditivity
p952
I3341
sVcelebrated
p953
I1539
sVrochet
p954
I678
sVshares
p955
I1329
sVuniform
p956
I810
sVcurrent
p957
I435
sVnonequivalence
p958
I2108
sVsequential
p959
I1029
sVillustrations
p960
I2686
sVinternational
p961
I3525
sVparadoxical
p962
I254
sVcollateral
p963
I2112
sVunsure
p964
I1709
sVprescriptions
p965
I1489
sVmartingality
p966
I3044
sVcontainment
p967
I3594
sVtopicality
p968
I1568
sVagreement
p969
I1900
sVtangent
p970
I382
sVgroups
p971
I1187
sVntfps
p972
I2315
sVsifi
p973
I3537
sVchange
p974
I899
sVhansen
p975
I942
sVincoming
p976
I1301
sVcanadian
p977
I563
sVprecursor
p978
I3544
sVshift
p979
I3424
sVstudied
p980
I564
sVfunded
p981
I3203
sVtrial
p982
I3107
sVpoisson
p983
I2833
sVdomains
p984
I2914
sVy_t
p985
I2144
sVuseful
p986
I1048
sVretiree
p987
I2393
sVextra
p988
I1508
sVproblematic
p989
I3312
sVlending
p990
I853
sVomega
p991
I2405
sVlogical
p992
I2632
sVpeer
p993
I2330
sVflexibility
p994
I1585
sVcrisis
p995
I595
sVmarket
p996
I13
sVunilateral
p997
I3603
sVadditive
p998
I467
sVwealth
p999
I468
sVworking
p1000
I1592
sVlemma
p1001
I1750
sVpositive
p1002
I195
sVallowance
p1003
I3228
sVpredictions
p1004
I369
sVcentrality
p1005
I598
sVscenarios
p1006
I553
sVinsider
p1007
I3444
sVinflation
p1008
I1881
sVopposed
p1009
I2554
sVcriteria
p1010
I410
sVfrancs
p1011
I1813
sVaustralian
p1012
I2367
sVindistinguishable
p1013
I3530
sVtheoretical
p1014
I287
sVtoday
p1015
I2700
sVsharing
p1016
I2276
sVduality
p1017
I1166
sVoutputs
p1018
I3656
sVacceptable
p1019
I517
sVapparent
p1020
I2436
sVminsky
p1021
I2324
sVdupire
p1022
I2155
sVvalidity
p1023
I2546
sVclue
p1024
I1810
sVemployee
p1025
I3218
sVvisual
p1026
I2674
sVappendix
p1027
I2638
sVbellman
p1028
I2033
sVriod
p1029
I2513
sVcases
p1030
I147
sVeffort
p1031
I166
sVinsights
p1032
I3198
sVlogarithm
p1033
I2458
sVparameterize
p1034
I2563
sVunbiased
p1035
I2408
sVscholes
p1036
I341
sVthousands
p1037
I742
sVcap
p1038
I2362
sVmodified
p1039
I483
sVradon
p1040
I2483
sVreviews
p1041
I1411
sVregions
p1042
I2230
sVvalues
p1043
I344
sVslowness
p1044
I1476
sVcal
p1045
I2548
sVfollowing
p1046
I1345
sVunconditional
p1047
I706
sVspx
p1048
I1964
sVclaim
p1049
I0
sVnikodym
p1050
I2480
sVuruguay
p1051
I2542
sVdecember
p1052
I185
sVsubsidies
p1053
I2252
sV0251
p1054
I3498
sVsmirnov
p1055
I2871
sVagent
p1056
I893
sVmonge
p1057
I3030
sVsample
p1058
I217
sVweighting
p1059
I2418
sVcoincident
p1060
I2697
sVaksamit
p1061
I3477
sVcounting
p1062
I1939
sVdrawdowns
p1063
I244
sVdominancy
p1064
I1350
sVproductive
p1065
I2123
sVrequirements
p1066
I1236
sVbankrupt
p1067
I776
sVdiscussion
p1068
I2663
sVmeans
p1069
I408
sVpositional
p1070
I1670
sVgenetics
p1071
I2171
sVcriterion
p1072
I512
sVpure
p1073
I930
sVoptimal
p1074
I357
sVaxis
p1075
I2605
sVparameter
p1076
I440
sVdominance
p1077
I2061
sVeconomy
p1078
I441
sVmap
p1079
I1600
sVlevy
p1080
I376
sVs_
p1081
I1105
sVirrational
p1082
I2286
sVcrashes
p1083
I2931
sVmay
p1084
I733
sVmax
p1085
I1696
sVspot
p1086
I1966
sVneeds
p1087
I2994
sV148
p1088
I2872
sVemulators
p1089
I1765
sVsubordinators
p1090
I3056
sVapplications
p1091
I475
sVmembership
p1092
I3418
sVdesigned
p1093
I2440
sVdate
p1094
I2445
sVrepresentations
p1095
I359
sVcadlag
p1096
I43
sVfftap
p1097
I51
sVpredictors
p1098
I1423
sVstress
p1099
I1426
sVjel
p1100
I3186
sVnatural
p1101
I1264
sVdynamical
p1102
I840
sVliquid
p1103
I270
sVinvitation
p1104
I3108
sVexpectiles
p1105
I882
sVfutures
p1106
I273
sVexplicit
p1107
I342
sVyielding
p1108
I1551
sVpurification
p1109
I1552
sVcascade
p1110
I842
sVfiltrations
p1111
I1957
sVreputations
p1112
I1716
sVdeposit
p1113
I1244
sVafrican
p1114
I3241
sVbasket
p1115
I1864
sVdefinitions
p1116
I794
sVidiosyncratic
p1117
I2022
sVtypical
p1118
I181
sVinterday
p1119
I3449
sVapprox
p1120
I2496
sVmaximisation
p1121
I2265
sVaforementioned
p1122
I997
sVnoteworthy
p1123
I2161
sVgradual
p1124
I1666
sVthresholds
p1125
I752
sVprimitive
p1126
I2953
sVnonparametric
p1127
I685
sVfeature
p1128
I760
sVstability
p1129
I167
sVstructuring
p1130
I1330
sVepisodes
p1131
I2899
sVdisparities
p1132
I3132
sVstatistical
p1133
I291
sVgpus
p1134
I3238
sVunfavorable
p1135
I1942
sVstatements
p1136
I3513
sVtendency
p1137
I545
sVgroup
p1138
I3115
sVinteresting
p1139
I1620
sVhot
p1140
I2802
sVdecreases
p1141
I697
sVforms
p1142
I2947
sVplatform
p1143
I2525
sVwindow
p1144
I728
sVoptimality
p1145
I3295
sVpolicy
p1146
I438
sVmain
p1147
I652
sVdecades
p1148
I2927
sVcorrespondence
p1149
I1931
sVfinance
p1150
I983
sVdisparate
p1151
I3535
sVviews
p1152
I2357
sVrotations
p1153
I3296
sVprocesses
p1154
I1440
sVnation
p1155
I2876
sVscaling
p1156
I310
sVrecords
p1157
I557
sVtails
p1158
I264
sVprovision
p1159
I1388
sVdefinedness
p1160
I3048
sVsusceptibility
p1161
I608
sVterm
p1162
I218
sVequality
p1163
I1628
sVsplines
p1164
I2479
sVjanuary
p1165
I223
sVmicrostructures
p1166
I2430
sVpossibilities
p1167
I1955
sVrealistic
p1168
I52
sVppp
p1169
I2729
sVoptimizer
p1170
I2975
sVinstabilities
p1171
I2698
sVinstability
p1172
I617
sVshareholder
p1173
I3592
sVglidepath
p1174
I3207
sVem
p1175
I1086
sVdomain
p1176
I1969
sVsquare
p1177
I1310
sVsubgame
p1178
I2997
sVed
p1179
I2752
sVkeynesian
p1180
I1454
sVimproved
p1181
I2771
sVcommunication
p1182
I2101
sVgaussian
p1183
I802
sVbreakthrough
p1184
I1903
sViasb
p1185
I2754
sVfbsdes
p1186
I2715
sVex
p1187
I1723
sVproportional
p1188
I358
sVeu
p1189
I593
sVet
p1190
I1095
sVmapping
p1191
I2916
sVev
p1192
I2261
sVes
p1193
I866
sVpredefined
p1194
I1482
sVrenegotiation
p1195
I2895
sVjackson
p1196
I3375
sVbullish
p1197
I220
sVfactors
p1198
I401
sVprofit
p1199
I646
sVgreeks
p1200
I150
sVsquared
p1201
I2145
sVftap
p1202
I1355
sVintermarket
p1203
I3427
sVincrease
p1204
I894
sVinvestigation
p1205
I2312
sVrational
p1206
I1332
sVnupbr
p1207
I3476
sVformula
p1208
I335
sVcorrect
p1209
I3382
sVunifying
p1210
I2888
sVabnormal
p1211
I2472
sVlag
p1212
I3425
sVnormality
p1213
I1644
sVcarr
p1214
I2219
sVderived
p1215
I1782
sVliable
p1216
I3096
sVmechanisms
p1217
I786
sVpossibility
p1218
I40
sVdsge
p1219
I2570
sVjermann
p1220
I936
sVdependencies
p1221
I1273
sVcomplicated
p1222
I2949
sVcomparisons
p1223
I3072
sVspan
p1224
I3595
sVchen
p1225
I464
sVremainder
p1226
I415
sVtankov
p1227
I1908
sVcare
p1228
I2007
sValphas
p1229
I2524
sVtraining
p1230
I1433
sVbspde
p1231
I2140
sVautoregressive
p1232
I1364
sVderivation
p1233
I527
sVlanguage
p1234
I3231
sVmidprice
p1235
I3037
sVtransition
p1236
I892
sVprogramming
p1237
I1027
sVwrong
p1238
I2288
sVhonest
p1239
I3470
sVmotion
p1240
I970
sVturn
p1241
I1118
sVplace
p1242
I896
sVundesirable
p1243
I1210
sVoutbreaks
p1244
I2910
sVshiryaev
p1245
I3047
sVfirst
p1246
I58
sVexotic
p1247
I1162
sVintuition
p1248
I2466
sVsaving
p1249
I641
sVsymmetry
p1250
I1087
sVrevenue
p1251
I1149
sVvariables
p1252
I494
sVcountercyclical
p1253
I3152
sVsubclusters
p1254
I3420
sVkarhunen
p1255
I797
sVone
p1256
I6
sVsimplified
p1257
I3522
sVlong
p1258
I198
sVimpossible
p1259
I1874
sVopen
p1260
I2244
sVangular
p1261
I3432
sVsize
p1262
I243
sVcity
p1263
I3486
sVlittle
p1264
I981
sVsheet
p1265
I830
sVhinich
p1266
I3337
sVziegel
p1267
I1777
sVcompulsory
p1268
I3357
sVhouseholds
p1269
I1457
sVindicate
p1270
I3190
sVreturns
p1271
I199
sVcbu
p1272
I2539
sVx_
p1273
I2146
sVwhite
p1274
I2744
sVstructures
p1275
I1002
sVcite
p1276
I123
sVdifferentials
p1277
I3401
sVinefficient
p1278
I1294
sVuninformed
p1279
I3441
sVasymmetric
p1280
I1108
sVtaxation
p1281
I2128
sVcontinuous
p1282
I35
sVfukasawa
p1283
I2908
sVstylized
p1284
I2130
sVinhomogeneous
p1285
I2883
sVholder
p1286
I3220
sVinterbank
p1287
I838
sVsemantics
p1288
I1431
sVpopulation
p1289
I2015
sVwide
p1290
I447
sV15
p1291
I1125
sVeffective
p1292
I170
sVaccordance
p1293
I3034
sVrequire
p1294
I3546
sVassortative
p1295
I2163
sVcairns
p1296
I1768
sVmodelled
p1297
I2966
sVf_t
p1298
I2958
sVfuture
p1299
I343
sVoutcome
p1300
I535
sVpublished
p1301
I1518
sVhypothetical
p1302
I2366
sVdeciphering
p1303
I1487
sVcontentious
p1304
I750
sVinvestors
p1305
I18
sVcorrection
p1306
I392
sVlocations
p1307
I1183
sVgeneralization
p1308
I286
sVhft
p1309
I3023
sVdistorted
p1310
I920
sVconversion
p1311
I3393
sVefficient
p1312
I194
sVreasonable
p1313
I2885
sVideas
p1314
I2355
sVconverges
p1315
I1662
sVnote
p1316
I1778
sVemphasis
p1317
I869
sVpotential
p1318
I1228
sVtake
p1319
I3391
sVonline
p1320
I914
sVobjective
p1321
I1054
sVperformance
p1322
I157
sVconcern
p1323
I2618
sVimpairment
p1324
I2765
sVswitching
p1325
I3012
sVesos
p1326
I3212
sVbutterfly
p1327
I2172
sVformulas
p1328
I2152
sVsure
p1329
I1014
sVmultiple
p1330
I473
sVfriz
p1331
I2527
sVtrace
p1332
I2469
sVnormal
p1333
I835
sVbuffer
p1334
I767
sVprice
p1335
I34
sVdecreasing
p1336
I2789
sVphases
p1337
I3136
sValgebraic
p1338
I3084
sVbeta
p1339
I122
sVsheets
p1340
I2824
sVformulae
p1341
I413
sVpair
p1342
I414
sVcleared
p1343
I1706
sVvoluntary
p1344
I2691
sVpicture
p1345
I1981
sVdemocratic
p1346
I2094
sVsurprising
p1347
I2267
sVconsidered
p1348
I3633
sVaverage
p1349
I1498
sVlater
p1350
I2934
sVsteady
p1351
I1182
sVsale
p1352
I634
sVneg
p1353
I3252
sVstocktwits
p1354
I3552
sVways
p1355
I2679
sVclearing
p1356
I2712
sVsenior
p1357
I783
sVturnover
p1358
I2217
sVsigma
p1359
I3285
sVliquidity
p1360
I1005
sVquantity
p1361
I639
sVslope
p1362
I979
sVdirected
p1363
I2806
sVregulated
p1364
I2779
sVshow
p1365
I890
sVgerman
p1366
I891
sVsynchronous
p1367
I2210
sVaccession
p1368
I2574
sVsites
p1369
I2255
sVdiscovered
p1370
I541
sVpassages
p1371
I1416
sVinconsistent
p1372
I1785
sVdecompositions
p1373
I3568
sVthreshold
p1374
I950
sVscarce
p1375
I1190
sVgeography
p1376
I3257
sVfibre
p1377
I2557
sVbrigo
p1378
I2709
sVslow
p1379
I399
sVratio
p1380
I692
sVrebalancer
p1381
I3440
sVproportion
p1382
I2004
sVarrovian
p1383
I1935
sVchoulli
p1384
I3479
sVanalytic
p1385
I1100
sVwood
p1386
I3291
sVblack
p1387
I333
sVtreasury
p1388
I2716
sVparabolic
p1389
I2148
sVsensitivities
p1390
I705
sVawareness
p1391
I3330
sVprobabilities
p1392
I2544
sVranking
p1393
I1738
sVexplosion
p1394
I1894
sVcontracts
p1395
I259
sVfrequentist
p1396
I1257
sVexpectation
p1397
I1213
sVnasini
p1398
I2376
sVprogress
p1399
I3458
sVhedge
p1400
I2331
sVdistortion
p1401
I3343
sVboundary
p1402
I1804
sVsecondary
p1403
I3358
sVprime
p1404
I1248
sVreveal
p1405
I3608
sVresource
p1406
I610
sVsettings
p1407
I319
sVbifurcation
p1408
I1684
sVmedian
p1409
I3051
sVyield
p1410
I1184
sVsummary
p1411
I2437
sVmyopic
p1412
I2523
sVformulations
p1413
I3371
sVkernel
p1414
I61
sVcommittee
p1415
I1828
sVricci
p1416
I65
sVviolated
p1417
I3035
sVbounds
p1418
I1983
sVrelative
p1419
I1924
sVpathwise
p1420
I2269
sVseam
p1421
I2240
sVcalendar
p1422
I2182
sVuncorrelated
p1423
I108
sVsteric
p1424
I1794
sVstatedependent
p1425
I2465
sVencouraged
p1426
I1338
sVsurfaces
p1427
I298
sVisraeli
p1428
I348
sVinequalities
p1429
I2124
sVcir
p1430
I2688
sVfederal
p1431
I1238
sVsubsequent
p1432
I2225
sVreview
p1433
I2983
sVdefinite
p1434
I2519
sVfunctionals
p1435
I1764
sVforecast
p1436
I1995
sVboundaries
p1437
I1099
sVqubits
p1438
I1491
sVenough
p1439
I1197
sVun
p1440
I2815
sVimport
p1441
I2816
sVgeometric
p1442
I957
sVpolicyholder
p1443
I1521
sVarrival
p1444
I1657
sVinfrastructure
p1445
I1542
sV10
p1446
I2516
sVparental
p1447
I3356
sVoriginated
p1448
I1064
sVclayton
p1449
I2786
sVbenaim
p1450
I2529
sVmultiplier
p1451
I2042
sVanalyzed
p1452
I691
sVarticle
p1453
I631
sVcities
p1454
I3135
sVreaction
p1455
I417
sVdates
p1456
I1949
sVtalented
p1457
I2159
sVtractable
p1458
I2360
sVsuccesses
p1459
I3360
sVregion
p1460
I613
sVtrades
p1461
I888
sVrecessions
p1462
I1469
sVcontract
p1463
I769
sVlaplace
p1464
I132
sVpropagation
p1465
I2809
sVlorig
p1466
I126
sVworkplace
p1467
I1619
sVembedding
p1468
I1201
sVrankings
p1469
I3129
sVdrawups
p1470
I278
sVtraded
p1471
I59
sVregressions
p1472
I1857
sVbusinesses
p1473
I2730
sVnearby
p1474
I2318
sVminima
p1475
I1059
sVforecasting
p1476
I538
sV_t
p1477
I2957
sVcharacterization
p1478
I2201
sVoverview
p1479
I1127
sVdislocations
p1480
I2118
sVperiod
p1481
I210
sVvenues
p1482
I1525
sVsampling
p1483
I2703
sVsatisfaction
p1484
I1092
sVexploit
p1485
I2131
sVmicrofinance
p1486
I3618
sVanti
p1487
I542
sVdecile
p1488
I231
sVlearning
p1489
I1844
sVlagrange
p1490
I2047
sVante
p1491
I1721
sVconstant
p1492
I1083
sVturkey
p1493
I1134
sVsensible
p1494
I2553
sVunusual
p1495
I2929
sVoliver
p1496
I3091
sVcapitalizations
p1497
I2205
sVcapable
p1498
I2798
sVanalogies
p1499
I2652
sVcomputing
p1500
I424
sVodes
p1501
I3170
sVproduction
p1502
I3121
sVliving
p1503
I3274
sVprototype
p1504
I3245
sVengine
p1505
I3309
sVdirection
p1506
I2173
sVobservable
p1507
I1968
sVsectors
p1508
I2127
sVoffered
p1509
I2188
sVworkable
p1510
I3433
sV6m
p1511
I1427
sVdramatic
p1512
I1853
sVwake
p1513
I606
sVexternal
p1514
I847
sVbayesian
p1515
I1156
sVreshufflings
p1516
I660
sVrubinstein
p1517
I3604
sVdriver
p1518
I1899
sVhidden
p1519
I2764
sVshsz
p1520
I739
sVpilot
p1521
I2457
sVeis
p1522
I3554
sVdisconnected
p1523
I1613
sVjeanblanc3
p1524
I3472
sVxva
p1525
I2717
sVcash
p1526
I530
sVprofiles
p1527
I3457
sVongoing
p1528
I2615
sVpolicies
p1529
I455
sVpromising
p1530
I179
sVsituation
p1531
I637
sVmargin
p1532
I2493
sVtrader
p1533
I1194
sVversus
p1534
I2766
sVplanar
p1535
I1582
sVsubadditive
p1536
I3342
sVoligopoly
p1537
I3528
sVcharacteristics
p1538
I493
sVmetric
p1539
I1870
sVsectional
p1540
I3403
sVdiscrepancy
p1541
I142
sVcouples
p1542
I2321
sVcluster
p1543
I1584
sVunit
p1544
I2026
sVbias
p1545
I1153
sVprimitives
p1546
I2341
sVmotivated
p1547
I2656
sVeraire
p1548
I1929
sVengages
p1549
I3447
sVtechnology
p1550
I898
sVeveryday
p1551
I1830
sVmovements
p1552
I546
sVbinary
p1553
I673
sVdifferent
p1554
I80
sVparticipant
p1555
I3451
sVetc
p1556
I3383
sVpay
p1557
I2361
sVseeking
p1558
I2189
sVleibler
p1559
I1841
sVsurveillance
p1560
I2191
sVshifts
p1561
I3428
sVarguments
p1562
I2268
sVstirzaker
p1563
I622
sVetf
p1564
I322
sVregime
p1565
I1247
sVintermediary
p1566
I998
sVcomex
p1567
I3463
sVbreakdown
p1568
I1676
sVsifis
p1569
I3539
sVextended
p1570
I1124
sVrefraction
p1571
I3481
sVgusev
p1572
I1295
sVproducers
p1573
I1185
sVmacroeconomic
p1574
I412
sVedges
p1575
I770
sVdriven
p1576
I1302
sVinvariance
p1577
I1882
sVois
p1578
I2944
sVets
p1579
I3222
sVcarhart
p1580
I1858
sVtracking
p1581
I2449
sVshevron
p1582
I3406
sVframework
p1583
I519
sVexpression
p1584
I346
sVccp
p1585
I2855
sVsubstantive
p1586
I2608
sVsevere
p1587
I856
sVcosts
p1588
I54
sVcomponents
p1589
I1335
sVkupferman
p1590
I636
sVtermination
p1591
I1519
sVreward
p1592
I1865
sVdimension
p1593
I180
sVgdp
p1594
I1866
sVgates
p1595
I1478
sVmanifold
p1596
I63
sVrosenbaum
p1597
I1895
sVmoney
p1598
I801
sVadjustments
p1599
I2607
sVactions
p1600
I1535
sVunclear
p1601
I3385
sVmultiplex
p1602
I754
sVaspect
p1603
I3302
sVdifferentiation
p1604
I1787
sVbehavioural
p1605
I1994
sVspeed
p1606
I246
sVsingularity
p1607
I1145
sVmultiples
p1608
I2448
sVweekly
p1609
I3399
sVunderinvests
p1610
I2246
sVsampled
p1611
I2142
sVdeath
p1612
I1999
sVpillar
p1613
I3110
sVlebesgue
p1614
I1781
sVletf
p1615
I301
sVinterfirm
p1616
I3163
sVparametrization
p1617
I2847
sVfva
p1618
I2856
sVhyperreal
p1619
I1540
sVmisspecified
p1620
I1840
sVsetting
p1621
I25
sVtreatment
p1622
I2634
sVsamples
p1623
I377
sVcontinuation
p1624
I2031
sVholdings
p1625
I3377
sVextensive
p1626
I439
sVstructural
p1627
I1961
sVmuckenhoupt
p1628
I2976
sVmomentum
p1629
I1675
sVross
p1630
I1057
sVreal
p1631
I375
sVaspects
p1632
I654
sVeigenfunction
p1633
I923
sVrules
p1634
I741
sVdecomposed
p1635
I337
sVdark
p1636
I1193
sVquantiles
p1637
I878
sVgrid
p1638
I1609
sVpreference
p1639
I1407
sVamp
p1640
I111
sVcbot
p1641
I3460
sVexecution
p1642
I1531
sVmeaning
p1643
I2090
sV2012
p1644
I3493
sVparticle
p1645
I969
sVnu
p1646
I2933
sVwrongful
p1647
I3106
sVbenefit
p1648
I1517
sVsubcommittees
p1649
I1936
sVintegrals
p1650
I130
sVexpectile
p1651
I885
sVoutput
p1652
I457
sVdownward
p1653
I1946
sVinter
p1654
I2050
sVstationary
p1655
I1621
sVreduced
p1656
I173
sVgrouping
p1657
I233
sVbankruptcies
p1658
I749
sVsatisfactory
p1659
I1623
sVintertemporal
p1660
I461
sVdoll
p1661
I1205
sVsequences
p1662
I145
sVcompetition
p1663
I1111
sVsupplementary
p1664
I2297
sVpascucci
p1665
I71
sVhurst
p1666
I1142
sVautocatalytic
p1667
I2322
sVrespect
p1668
I594
sVduration
p1669
I239
sVorganizing
p1670
I1587
sVmatching
p1671
I2168
sVprovided
p1672
I1875
sVcarmona
p1673
I367
sVvariates
p1674
I1250
sVcolloidal
p1675
I1798
sVswaps
p1676
I1045
sVundervaluation
p1677
I2380
sVrecorded
p1678
I3367
sVlegal
p1679
I3092
sVdepletion
p1680
I3635
sVcritical
p1681
I956
sVdecomposition
p1682
I1558
sVdeficit
p1683
I2512
sVguillaume
p1684
I3060
sVmathcal
p1685
I2961
sVmoderate
p1686
I661
sVaggregates
p1687
I3517
sVmeasuring
p1688
I1648
sVmultifractality
p1689
I1063
sVcontingent
p1690
I14
sVpower
p1691
I258
sVseconds
p1692
I251
sVmanufactured
p1693
I2532
sVequivalent
p1694
I20
sVbackhoff
p1695
I3495
sVeurex
p1696
I3455
sVratios
p1697
I313
sVinherent
p1698
I1119
sVscholars
p1699
I2096
sVexciting
p1700
I2434
sVcomparison
p1701
I1503
sVcentral
p1702
I967
sVorigins
p1703
I269
sVstations
p1704
I2251
sVindustry
p1705
I318
sVtheorems
p1706
I1923
sVdv_
p1707
I2075
sVpractical
p1708
I227
sVtremendous
p1709
I504
sVestimator
p1710
I821
sVwolf
p1711
I913
sVact
p1712
I1712
sVuhlenbeck
p1713
I1020
sVmean
p1714
I1122
sVos
p1715
I3571
sVenhancement
p1716
I3637
sVperturbed
p1717
I1627
sVsuppression
p1718
I3523
sVinclusion
p1719
I3611
sVcoupon
p1720
I1948
sVinstruments
p1721
I138
sV1405
p1722
I3500
sVauthorities
p1723
I2195
sVharness
p1724
I1303
sVaccounts
p1725
I2121
sVmicrostructure
p1726
I1977
sVdetermine
p1727
I671
sVparties
p1728
I1729
sVelementary
p1729
I1284
sVspline
p1730
I2488
sVintervention
p1731
I952
sVlob
p1732
I1000
sVlog
p1733
I1033
sVhedgeable
p1734
I19
sVarea
p1735
I1126
sVpremia
p1736
I1366
sVrefinements
p1737
I1938
sVbangladeshi
p1738
I3353
sVstrict
p1739
I2528
sVlow
p1740
I154
sVlot
p1741
I1576
sVresolute
p1742
I1933
sVresolvent
p1743
I3649
sVbubble
p1744
I731
sVstage
p1745
I2332
sVneyman
p1746
I1755
sVaoki
p1747
I281
sVtight
p1748
I3653
sVcomplete
p1749
I336
sVnewtonian
p1750
I2086
sVvested
p1751
I3213
sVkabanov
p1752
I1077
sVdelayed
p1753
I338
sVstrikes
p1754
I2587
sVsophisticated
p1755
I3189
sVdeltas
p1756
I3610
sVposterior
p1757
I2728
sVcorrelated
p1758
I561
sVunreliable
p1759
I2849
sVpdes
p1760
I2150
sVbuying
p1761
I965
sVoctober
p1762
I2508
sVrotation
p1763
I3305
sVqualitative
p1764
I2673
sVmonopoly
p1765
I2693
sVdefault
p1766
I90
sVmultiplicity
p1767
I819
sVrobustness
p1768
I883
sVemissions
p1769
I454
sVdiagrams
p1770
I2742
sVsubclasses
p1771
I1940
sVbeliefs
p1772
I1056
sVeigenvector
p1773
I1360
sVregimes
p1774
I1688
sVdetailed
p1775
I945
sVinteractive
p1776
I2672
sVad
p1777
I1279
sVgeriatric
p1778
I1989
sVtaste
p1779
I668
sVcertain
p1780
I619
sVsales
p1781
I1241
sVdeep
p1782
I1421
sVgeneral
p1783
I68
sVloops
p1784
I3524
sVformulation
p1785
I826
sVharvest
p1786
I3307
sVcorresponding
p1787
I816
sVsemimartingales
p1788
I1625
sVwithdrawal
p1789
I1507
sVintra
p1790
I1012
sVgpu
p1791
I3244
sVgini
p1792
I3384
sVbeyond
p1793
I2793
sVcompleteness
p1794
I2851
sVstationarity
p1795
I1649
sVway
p1796
I371
sVhybrid
p1797
I907
sVevent
p1798
I2417
sVstubborn
p1799
I2098
sVfield
p1800
I1098
sVvalid
p1801
I1080
sViga
p1802
I2070
sVspatial
p1803
I2214
sVmathematics
p1804
I1803
sVcvar
p1805
I1861
sVtrajectory
p1806
I3032
sVunobservable
p1807
I1447
sVshenzhen
p1808
I204
sVdeviation
p1809
I3160
sVbriefly
p1810
I3317
sVreplenishment
p1811
I1382
sVseparate
p1812
I817
sVdurations
p1813
I261
sVdrift
p1814
I101
sVnonstandard
p1815
I2861
sVimportant
p1816
I780
sVbounded
p1817
I3474
sVpeak
p1818
I559
sVserious
p1819
I3364
sVstocks
p1820
I191
sVpool
p1821
I1200
sVbuilding
p1822
I2583
sVcpi
p1823
I1136
sVassets
p1824
I418
sVcalls
p1825
I2890
sVcontrolled
p1826
I1488
sVcurve
p1827
I1368
sVimpossibility
p1828
I2084
sVpretentious
p1829
I3105
sVmass
p1830
I2530
sVparallelism
p1831
I3324
sVbehavioral
p1832
I1412
sVexpenditure
p1833
I2903
sVcps
p1834
I3413
sVstarting
p1835
I3607
sVoriginal
p1836
I1074
sVexports
p1837
I2675
sVmonte
p1838
I62
sVsemantic
p1839
I1417
sVchinese
p1840
I183
sVlack
p1841
I2429
sVdollar
p1842
I3368
sVtrigonometric
p1843
I2420
sVscc
p1844
I427
sVmonth
p1845
I188
sVlcbgs
p1846
I2667
sVscalar
p1847
I3142
sVsystemic
p1848
I499
sVwelfare
p1849
I1720
sVkurtosis
p1850
I3506
sVfollow
p1851
I3445
sVexpressions
p1852
I1772
sVdecisions
p1853
I2804
sVreasoning
p1854
I3148
sVcauses
p1855
I1996
sVsynthetic
p1856
I901
sVchoquet
p1857
I1399
sVcaveats
p1858
I868
sVchain
p1859
I1988
sVre
p1860
I2281
sVequivalence
p1861
I1402
sVacting
p1862
I2384
sVopportunities
p1863
I23
sVformer
p1864
I3039
sVtail
p1865
I118
sVprogram
p1866
I1458
sValvarez
p1867
I929
sValberta
p1868
I555
sVsmile
p1869
I95
sVnodes
p1870
I764
sVheterogeneity
p1871
I663
sVendogenous
p1872
I275
sVnorm
p1873
I2506
sVoverarching
p1874
I3064
sVactivities
p1875
I1726
sVpremium
p1876
I932
sVstraightforward
p1877
I873
sVlaws
p1878
I2837
sValternatives
p1879
I874
sVlolrec
p1880
I1826
sVfat
p1881
I1066
sVlyapunov
p1882
I2103
sVcorollary
p1883
I3666
sVworst
p1884
I3464
sVfall
p1885
I2515
sVbubbles
p1886
I1928
sVdifference
p1887
I2550
sVcondition
p1888
I46
sVgeneralised
p1889
I3055
sVpre
p1890
I2619
sVevaluation
p1891
I1762
sVlist
p1892
I2236
sVapplicable
p1893
I2029
sVoutburst
p1894
I2617
sVbiological
p1895
I3086
sVbecker
p1896
I2160
sVchartalist
p1897
I3518
sVuruguayan
p1898
I2540
sVdiscriminates
p1899
I2650
sVpenalties
p1900
I3181
sVmicroloans
p1901
I2731
sVted
p1902
I1383
sVbspdes
p1903
I2136
sVpast
p1904
I327
sVrate
p1905
I948
sVperception
p1906
I2378
sVdesign
p1907
I500
sVperspective
p1908
I1008
sVinfimum
p1909
I1634
sVqmc
p1910
I146
sVattributable
p1911
I1292
sVinvestment
p1912
I396
sVcanonical
p1913
I2593
sVnonlinear
p1914
I675
sVtenor
p1915
I3284
sVsub
p1916
I723
sVadvantageous
p1917
I1694
sVinvesting
p1918
I2522
sVsum
p1919
I1253
sVticks
p1920
I572
sVspearman
p1921
I3125
sVversion
p1922
I648
sVinferences
p1923
I2582
sVfractional
p1924
I1907
sVissuer
p1925
I3273
sVpublic
p1926
I1103
sVcontrast
p1927
I203
sVmovement
p1928
I1921
sVturmoil
p1929
I848
sVfull
p1930
I1446
sVchristian
p1931
I3405
sVcomponent
p1932
I100
sVanswers
p1933
I2990
sVbehaviour
p1934
I104
sVmodular
p1935
I2979
sVuneven
p1936
I1179
sVoperating
p1937
I2259
sVcompressed
p1938
I2180
sVexcess
p1939
I1188
sVdirections
p1940
I3400
sVnovember
p1941
I3542
sVstrong
p1942
I1743
sVequations
p1943
I478
sVverifiable
p1944
I2955
sVgeneralizing
p1945
I3570
sVincrements
p1946
I3644
sVdisorders
p1947
I2001
sVahead
p1948
I1820
sVextraordinary
p1949
I1811
sVlosses
p1950
I841
sVslave
p1951
I3230
sVprior
p1952
I3564
sVamount
p1953
I1243
sVextremes
p1954
I1271
sVprobit
p1955
I2212
sVadvertising
p1956
I2386
sVgraph
p1957
I758
sVaction
p1958
I1795
sVformation
p1959
I1717
sVoptions
p1960
I324
sVconditioning
p1961
I3003
sVrecursion
p1962
I2568
sVdeterministic
p1963
I1079
sVtightness
p1964
I2659
sVhomotopic
p1965
I2559
sVfamily
p1966
I2426
sVmarginal
p1967
I425
sVtextit
p1968
I1714
sVhref
p1969
I3499
sVvix
p1970
I2149
sVrollover
p1971
I3281
sVconventional
p1972
I2248
sVcomonotonicity
p1973
I3071
sVuniformity
p1974
I1400
sVtrips
p1975
I3038
sVdistinct
p1976
I1475
sVrevelation
p1977
I3634
sVobjectives
p1978
I508
sVtwo
p1979
I1661
sVoecd
p1980
I2813
sVmysterious
p1981
I1485
sVmarkets
p1982
I29
sVnullity
p1983
I2684
sVdiamond
p1984
I2880
sVincentive
p1985
I2399
sVdescriptors
p1986
I1971
sVcompany
p1987
I1224
sVinfinitesimal
p1988
I2682
sVemission
p1989
I3120
sVinstrumental
p1990
I2714
sVdomination
p1991
I3139
sVcanadization
p1992
I3648
sVimpulse
p1993
I897
sVvarying
p1994
I2387
sVknown
p1995
I295
sVfoundations
p1996
I659
sVnormative
p1997
I3099
sVdocument
p1998
I3580
sVlecoutre
p1999
I1260
sVnone
p2000
I262
sVorganization
p2001
I3655
sVhour
p2002
I562
sVmiddle
p2003
I1668
sVscience
p2004
I2224
sVcentrifugal
p2005
I3253
sVmartingales
p2006
I2526
sVremain
p2007
I1499
sVlambda_
p2008
I2076
sVstrategies
p2009
I41
sVspontaneous
p2010
I3629
sVhistory
p2011
I747
sVhhs
p2012
I2294
sVpurchases
p2013
I1234
sVcompare
p2014
I1504
sVgeneralisable
p2015
I3258
sVimpacts
p2016
I2751
sVunleveraged
p2017
I3153
sVneglected
p2018
I2491
sVbloated
p2019
I2822
sVpro
p2020
I2753
sVyitzhaki
p2021
I2598
sVstates
p2022
I189
sVartzner
p2023
I1956
sVminimum
p2024
I912
sVnumbers
p2025
I1537
sVpurchased
p2026
I1094
sVsense
p2027
I5
sVsharp
p2028
I75
sVnonnegative
p2029
I2137
sVsupremum
p2030
I3005
sVreputation
p2031
I1719
sVrespective
p2032
I2948
sVgoal
p2033
I1671
sVequities
p2034
I1327
sValgorithms
p2035
I1976
sVmaps
p2036
I2204
sVjacquier
p2037
I1905
sVearnings
p2038
I2328
sVensemble
p2039
I1825
sVubiquitous
p2040
I3585
sVcircuit
p2041
I1500
sVfx
p2042
I2116
sVrearrangement
p2043
I3507
sVwiley
p2044
I1414
sVvariant
p2045
I1225
sVtreatments
p2046
I2014
sVshreve
p2047
I2588
sVretirement
p2048
I2392
sVplane
p2049
I1110
sVevaluations
p2050
I3386
sVresponse
p2051
I1579
sVshortcomings
p2052
I609
sVshort
p2053
I88
sVpreferential
p2054
I2218
sVfrictions
p2055
I1943
sVgeneralizations
p2056
I1622
sVspectra
p2057
I2235
sVovernight
p2058
I1852
sVdragon
p2059
I241
sVextrapolation
p2060
I3665
sVdiscretisation
p2061
I1036
sVfundamental
p2062
I56
sVmedia
p2063
I3550
sVbanks
p2064
I751
sVgamlss
p2065
I1390
sVito
p2066
I2264
sVelicitability
p2067
I859
sVhelp
p2068
I1534
sVobligors
p2069
I2844
sVseptember
p2070
I1789
sVdeveloped
p2071
I1509
sVsigni
p2072
I2462
sVtrade
p2073
I44
sVnegotiation
p2074
I3316
sVinterpolation
p2075
I3194
sVfilters
p2076
I1448
sVcommitted
p2077
I2623
sVminmax
p2078
I3031
sVexistence
p2079
I12
sVkinetic
p2080
I643
sVcontagions
p2081
I3591
sVstyle
p2082
I299
sVmalliavin
p2083
I1016
sVdebilitated
p2084
I2125
sVpropensity
p2085
I647
sVsusceptible
p2086
I532
sVaffine
p2087
I809
sVmykland
p2088
I1631
sVpeng
p2089
I1214
sVabsence
p2090
I24
sVmicroscopic
p2091
I649
sVjacobi
p2092
I2037
sVrelease
p2093
I2776
sVpca
p2094
I1919
sVfines
p2095
I2198
sVgood
p2096
I863
sVreturn
p2097
I256
sVgibbs
p2098
I2925
sVkohonen
p2099
I1605
sVcei
p2100
I3491
sVgeopolitical
p2101
I604
sVcev
p2102
I317
sVcompound
p2103
I2825
sVcommunities
p2104
I2314
sVsubprime
p2105
I2887
sValgerian
p2106
I3250
sVdesignation
p2107
I3534
sVautocopula
p2108
I1275
sVpresented
p2109
I2845
sVpolicyholders
p2110
I2018
sVevents
p2111
I253
sVgmwb
p2112
I1520
sVmicro
p2113
I3131
sVinequality
p2114
I2034
sVy_
p2115
I2147
sVfound
p2116
I1144
sVlikelihoods
p2117
I2999
sVdifficult
p2118
I2620
sVpermutation
p2119
I3646
sVheavy
p2120
I748
sVstatus
p2121
I3199
sVfragile
p2122
I3586
sVmental
p2123
I1987
sVweight
p2124
I1223
sVgeneration
p2125
I3233
sVdesirability
p2126
I1393
sVenergy
p2127
I2102
sVhard
p2128
I1871
sVidea
p2129
I1395
sVallocating
p2130
I3327
sVoil
p2131
I3370
sVyoshida
p2132
I2865
sVlookbacks
p2133
I1208
sVmeasurement
p2134
I1873
sVquantum
p2135
I712
sVseniority
p2136
I755
sVstandards
p2137
I2773
sVinsurance
p2138
I2285
sVfunding
p2139
I2114
sVmissed
p2140
I3263
sVintegro
p2141
I1528
sVviability
p2142
I3175
sVcovariates
p2143
I679
sVparticipants
p2144
I1051
sVdominated
p2145
I1359
sVftd
p2146
I3381
sVseneta
p2147
I3068
sVissue
p2148
I857
sVbelief
p2149
I1834
sVmonotone
p2150
I409
sVinterconnections
p2151
I2666
sVdifficulty
p2152
I1356
sVreason
p2153
I1109
sVbase
p2154
I2484
sVdayri
p2155
I2454
sVproxy
p2156
I2464
sVmembers
p2157
I2616
sVask
p2158
I42
sVtemperature
p2159
I1097
sVfiat
p2160
I2690
sVdefinition
p2161
I47
sVpairs
p2162
I1496
sVbenefits
p2163
I1722
sVenglish
p2164
I1577
sVplot
p2165
I2478
sVbarndorff
p2166
I1019
sVamerican
p2167
I484
sVunderlyings
p2168
I3429
sVthreat
p2169
I616
sVconsequence
p2170
I877
sVheartbeat
p2171
I2471
sVcompliance
p2172
I3225
sVanticipative
p2173
I3572
sVmajor
p2174
I586
sVtakers
p2175
I3177
sVprobability
p2176
I3
sVscheinkman
p2177
I916
sVreflected
p2178
I947
sVbitcoin
p2179
I2053
sVinstances
p2180
I974
sVdominating
p2181
I1753
sVfees
p2182
I1530
sVmaple
p2183
I2024
sVcarter
p2184
I1759
sVannuitization
p2185
I2391
sVperturbation
p2186
I2099
sVheads
p2187
I1591
sVleverage
p2188
I300
sVintroduction
p2189
I2435
sVleading
p2190
I402
sVfinanced
p2191
I3631
sVeulerian
p2192
I1707
sVregulation
p2193
I511
sVassumption
p2194
I1040
sVcalculations
p2195
I155
sVjustified
p2196
I3134
sVcompromise
p2197
I2132
sVmolecules
p2198
I1807
sVdfa
p2199
I1073
sVexponents
p2200
I257
sVrecovered
p2201
I2611
sVselling
p2202
I959
sVimperfect
p2203
I2636
sVoption
p2204
I363
sVrelationship
p2205
I245
sVhelpful
p2206
I2494
sVpark
p2207
I2310
sVgmdb
p2208
I3310
sVimmediate
p2209
I656
sVevcs
p2210
I2256
sVappreciation
p2211
I1028
sVpart
p2212
I1357
sVparsimonious
p2213
I2077
sVshifter
p2214
I686
sVauthors
p2215
I630
sVnorms
p2216
I3114
sVrecourse
p2217
I3266
sVtranslation
p2218
I975
sVversatility
p2219
I2889
sVdiffusion
p2220
I966
sVfinancing
p2221
I48
sVscheme
p2222
I1979
sVcyclic
p2223
I2641
sVhorizons
p2224
I222
sVdouble
p2225
I2461
sVanticipate
p2226
I3022
sVbootstrapping
p2227
I2115
sVaims
p2228
I3452
sVfinances
p2229
I3283
sVpairwise
p2230
I1653
sVrisks
p2231
I276
sVmacro
p2232
I2278
sVinflow
p2233
I3019
sVstickiness
p2234
I2272
sVrisky
p2235
I900
sVcheirank
p2236
I2807
sVfilipovic
p2237
I3415
sVbearishness
p2238
I3549
sVages
p2239
I1991
sVregularity
p2240
I3397
sVmanuscript
p2241
I3489
sVsubstantial
p2242
I1160
sVconcentration
p2243
I2283
sVaged
p2244
I3306
sVorders
p2245
I805
sVsell
p2246
I2796
sVpaths
p2247
I16
sVconstructions
p2248
I349
sVevasion
p2249
I2597
sVcheck
p2250
I3492
sVimf
p2251
I3515
sVself
p2252
I21
sVh26
p2253
I3182
sVsuperprocess
p2254
I955
sVode
p2255
I2963
sVwishart
p2256
I3085
sVgeneralized
p2257
I582
sVanalogy
p2258
I1802
sVsharpe
p2259
I703
sVfinding
p2260
I701
sVvasicek
p2261
I2743
sVunconstrained
p2262
I3446
sVcontractual
p2263
I2718
sVcollateralized
p2264
I2489
sVadopted
p2265
I2971
sVstreams
p2266
I2424
sVplay
p2267
I2279
sVadded
p2268
I3333
sVelectric
p2269
I2250
sVquote
p2270
I3002
sVmeasures
p2271
I518
sVexperiences
p2272
I2290
sVpari
p2273
I3267
sVsignificant
p2274
I213
sVeasing
p2275
I2826
sVnothing
p2276
I2398
sVstatistics
p2277
I1833
sVinfrastructures
p2278
I1546
sVprobabilistic
p2279
I360
sVccva
p2280
I2853
sVdeviations
p2281
I1262
sVunequal
p2282
I3423
sVmineral
p2283
I611
sVunsupervised
p2284
I1435
sVwindows
p2285
I1067
sVperformances
p2286
I1860
sVclear
p2287
I272
sVpopularity
p2288
I2072
sVcover
p2289
I3265
sVtraditional
p2290
I744
sVsimplex
p2291
I2832
sVclean
p2292
I2555
sVusual
p2293
I2578
sVphysics
p2294
I2095
sVinstitutions
p2295
I536
sVtangency
p2296
I3412
sVfavorable
p2297
I2505
sVsector
p2298
I887
sVphenomenon
p2299
I1324
sVgold
p2300
I1062
sVobligations
p2301
I1380
sVgolo
p2302
I2320
sVtenet
p2303
I1091
sVnasdaq
p2304
I1573
sVminimizing
p2305
I3566
sVrelation
p2306
I1318
sVacceptability
p2307
I502
sVstorability
p2308
I3533
sVexchangeability
p2309
I2169
sVnetworks
p2310
I588
sVoccupation
p2311
I2307
sVimpact
p2312
I15
sVcell
p2313
I3658
sVindicator
p2314
I398
sVcausality
p2315
I2063
sVruin
p2316
I3201
sVdistributed
p2317
I2032
sVpenalty
p2318
I2504
sVmasked
p2319
I3437
sVdysfunctional
p2320
I2133
sVequity
p2321
I1333
sVintegrable
p2322
I2974
sVcircle
p2323
I3430
sVbernstein
p2324
I1159
sVindifference
p2325
I472
sVmorgenstern
p2326
I1403
sVpeaked
p2327
I2878
sVintractable
p2328
I3374
sVdirichlet
p2329
I2828
sVgains
p2330
I1289
sVdandelion
p2331
I2881
sVdependent
p2332
I33
sVconnections
p2333
I3548
sVexpress
p2334
I516
sVkind
p2335
I1549
sVtrees
p2336
I3240
sVferrucci
p2337
I2748
sVsynchronization
p2338
I2576
sVcombinations
p2339
I3298
sVreferencing
p2340
I2938
sVcompiler
p2341
I3247
sVcrr
p2342
I1233
sVcontinuum
p2343
I3020
sVtransitional
p2344
I2233
sVarxiv
p2345
I3497
sVfactorization
p2346
I939
sVbanking
p2347
I852
sVcommon
p2348
I1041
sVallocations
p2349
I533
sVactivity
p2350
I1387
sVsustainable
p2351
I1889
sVexternalities
p2352
I1120
sVilliquidity
p2353
I2414
sVart
p2354
I2028
sVachieved
p2355
I1821
sVintelligence
p2356
I3167
sVtopics
p2357
I2354
sVindividual
p2358
I670
sVpergamenshchikov
p2359
I1081
sVdescriptions
p2360
I1422
sVclose
p2361
I995
sVforthcoming
p2362
I2477
sVtheoretic
p2363
I1398
sVarm
p2364
I2973
sVanalog
p2365
I2745
sVergodicity
p2366
I924
sVexpert
p2367
I2843
sVunivariate
p2368
I3328
sVpositivity
p2369
I3664
sVcoordination
p2370
I3282
sVf23
p2371
I3183
sVrepresentatives
p2372
I3622
sVvarious
p2373
I651
sVcertificate
p2374
I3224
sVincompatibility
p2375
I3520
sVcontrary
p2376
I3287
sVqueues
p2377
I3667
sVconditions
p2378
I96
sVdoubly
p2379
I2884
sVavailable
p2380
I902
sVstagnation
p2381
I1677
sVlatin
p2382
I2780
sVresponses
p2383
I1466
sVunconscious
p2384
I626
sVannouncement
p2385
I2507
sVtargeted
p2386
I2986
sVprescribe
p2387
I3332
sVattention
p2388
I989
sVvanishing
p2389
I2566
sVranked
p2390
I2829
sVinterface
p2391
I2671
sVdividend
p2392
I477
sVunderstanding
p2393
I3083
sVbivariate
p2394
I2533
sVprospects
p2395
I479
sVparadigms
p2396
I3318
sVlast
p2397
I1323
sVgmm
p2398
I2453
sVinfluential
p2399
I3490
sVannual
p2400
I1829
sVpds
p2401
I2846
sVforeign
p2402
I2119
sVsensitive
p2403
I699
sVconnection
p2404
I1171
sVcontext
p2405
I1439
sVpdf
p2406
I711
sVpde
p2407
I1199
sVbond
p2408
I944
sVwhole
p2409
I232
sVload
p2410
I2097
sVdistress
p2411
I1418
sVpoint
p2412
I492
sVreasons
p2413
I2629
sVcomposting
p2414
I3340
sVloan
p2415
I3621
sVmanners
p2416
I186
sVcommunity
p2417
I2653
sVcoincidence
p2418
I2547
sVdimensional
p2419
I172
sVagents
p2420
I1186
sVsistemicity
p2421
I3577
sVcontemporaneous
p2422
I1245
sVimprovement
p2423
I2005
sVmathbb
p2424
I2952
sVkernels
p2425
I1047
sVcommensurateness
p2426
I3075
sVdescribed
p2427
I620
sVtransformations
p2428
I2678
sVinstrument
p2429
I2364
sVmonthly
p2430
I228
sVquantile
p2431
I1751
sVpolitical
p2432
I2823
sVinstalment
p2433
I3313
sVstrategy
p2434
I726
sVreduction
p2435
I1515
sVpa
p2436
I2304
sVcomtrade
p2437
I2814
sVasymptotics
p2438
I812
sVpd
p2439
I2848
sVpe
p2440
I2514
sVmarginals
p2441
I1173
sVfirm
p2442
I624
sViman
p2443
I2788
sVdivergence
p2444
I1837
sVversa
p2445
I1674
sVkalman
p2446
I2985
sVfire
p2447
I2747
sVgas
p2448
I1269
sVcovariance
p2449
I908
sVmodelling
p2450
I1374
sVgap
p2451
I996
sVfund
p2452
I311
sVmoderation
p2453
I3157
sVdetermination
p2454
I3605
sVrepresentative
p2455
I162
sVhughston
p2456
I1640
sVdemand
p2457
I687
sVprices
p2458
I314
sVb_t
p2459
I2962
sVindependence
p2460
I2706
sVintriguing
p2461
I3102
sVuncertain
p2462
I480
sVexponential
p2463
I1896
sVraw
p2464
I1261
sVreliable
p2465
I384
sVestimations
p2466
I1315
sVempirical
p2467
I385
sVcopulas
p2468
I580
sVdistressed
p2469
I2334
sVoptimization
p2470
I176
sVepinette
p2471
I3601
sVbehavior
p2472
I566
sVerror
p2473
I178
sVleland
p2474
I1084
sVcouplings
p2475
I3547
sVloop
p2476
I2339
sVvectors
p2477
I1973
sVcentury
p2478
I1867
sVvol
p2479
I66
sVaveraging
p2480
I391
sVvon
p2481
I1394
sVdecline
p2482
I3196
sVraise
p2483
I3514
sVautocopulas
p2484
I1272
sVobstacle
p2485
I3625
sVtriple
p2486
I3373
sVvanish
p2487
I2056
sVnielsen
p2488
I1015
sVdax
p2489
I2388
sVtwofold
p2490
I2923
sVgrant
p2491
I3597
sVlengths
p2492
I1456
sVgovernment
p2493
I1912
sVdiscourse
p2494
I2668
sVwidely
p2495
I2349
sVmodification
p2496
I1334
sVsurvey
p2497
I1131
sVray
p2498
I2404
sVhigher
p2499
I1043
sVdevelopment
p2500
I2229
sVliterature
p2501
I976
sVtemporary
p2502
I960
sVsuperhedging
p2503
I1559
sVlie
p2504
I2156
sVreversion
p2505
I1679
sVcomprehensive
p2506
I1381
sVdolinsky
p2507
I1630
sVflows
p2508
I1050
sVmoment
p2509
I1039
sVlevels
p2510
I779
sVpurpose
p2511
I1052
sVcopula
p2512
I1655
sVrobust
p2513
I215
sVstriking
p2514
I2808
sVrecent
p2515
I416
sVearly
p2516
I2287
sVtask
p2517
I1910
sVsurrogate
p2518
I1760
sVposedness
p2519
I3278
sVaccumulation
p2520
I3226
sVgsa
p2521
I174
sVconcrete
p2522
I2220
sVedge
p2523
I778
sVconsistency
p2524
I1216
sVswiss
p2525
I1817
sVentry
p2526
I1155
sVredistribution
p2527
I2134
sVparametric
p2528
I458
sVspeculative
p2529
I3016
sVoscillation
p2530
I1911
sVmultifractal
p2531
I1060
sVcontemporary
p2532
I3558
sVjudgments
p2533
I2842
sVkarasi
p2534
I3009
sVcompetitive
p2535
I1090
sVhjz
p2536
I1784
sVshape
p2537
I2170
sVintervals
p2538
I1255
sVfollmer
p2539
I3567
sVquestions
p2540
I1455
sVhjb
p2541
I395
sVhjm
p2542
I1375
sVinference
p2543
I1251
sValternative
p2544
I430
sVtimber
p2545
I2301
sVprofitable
p2546
I721
sVtables
p2547
I1998
sVcut
p2548
I2157
sVconclusions
p2549
I2701
sVinformal
p2550
I1732
sVworkers
p2551
I1595
sVguaranteed
p2552
I1512
sVsignals
p2553
I1673
sVsource
p2554
I1140
sVinternal
p2555
I3660
sVlocation
p2556
I2305
sVtheorem
p2557
I27
sVrelevance
p2558
I994
sVinput
p2559
I407
sVssci
p2560
I729
sVsolvable
p2561
I2023
sVtransformation
p2562
I97
sVeuler
p2563
I2661
sVhypothecation
p2564
I2707
sVcornish
p2565
I2062
sVmarch
p2566
I3502
sVemergency
p2567
I2309
sVa_p
p2568
I2977
sVhuberman
p2569
I3173
sVbig
p2570
I2978
sVbid
p2571
I30
sVjacobian
p2572
I2960
sVaggregation
p2573
I2702
sVadditivity
p2574
I880
sVmatters
p2575
I3259
sVgame
p2576
I354
sVappendices
p2577
I2441
sVlike
p2578
I708
sVmodifications
p2579
I1219
sVpertinent
p2580
I1434
sVsemi
p2581
I1265
sVshaped
p2582
I1615
sVmicrocredit
p2583
I2724
sVfacets
p2584
I1651
sVadiabatic
p2585
I2642
sVdeleterious
p2586
I615
sVindividuals
p2587
I1618
sVunstable
p2588
I843
sVpopular
p2589
I1449
sVunsecured
p2590
I3270
sVessential
p2591
I1192
sVmathematical
p2592
I1163
sVsketch
p2593
I1452
sVneumann
p2594
I1392
sVcreation
p2595
I2209
sVunderdeveloped
p2596
I2237
sVurgent
p2597
I3326
sVtrends
p2598
I2017
sVeconomic
p2599
I453
sVpricing
p2600
I10
sVcurious
p2601
I2549
sVpronounced
p2602
I2922
sVscale
p2603
I432
sVminimax
p2604
I1353
sVmeasurements
p2605
I724
sVnovelty
p2606
I1569
sVintegration
p2607
I2154
sVseller
p2608
I788
sVlinkages
p2609
I2327
sVfbm
p2610
I3642
sVminimal
p2611
I374
sVdiagonality
p2612
I1850
sVbf
p2613
I3602
sVrun
p2614
I569
sVdemography
p2615
I3127
sV300
p2616
I725
sVjumps
p2617
I987
sVprocessing
p2618
I2175
sVconfidence
p2619
I1249
sVwithdrawals
p2620
I3204
sVmultiplicative
p2621
I3018
sVstep
p2622
I2450
sVusd
p2623
I2538
sVnegatives
p2624
I2945
sVbr
p2625
I521
sVpredictability
p2626
I560
sVexcursions
p2627
I3197
sVgoods
p2628
I633
sVusa
p2629
I2085
sVconstraint
p2630
I481
sVnovikov
p2631
I2561
sVprove
p2632
I2560
sVboltzmann
p2633
I3545
sVrange
p2634
I452
sVregular
p2635
I1982
sVextensions
p2636
I1624
sVkardaras
p2637
I1230
sVjarzynski
p2638
I2536
sVitalian
p2639
I2340
sVcashflows
p2640
I347
sVgamma
p2641
I2040
sVcredible
p2642
I2720
sVdelbaen
p2643
I1945
sVcomputational
p2644
I135
sVencumbrance
p2645
I3262
sVrho
p2646
I64
sVmsts
p2647
I3237
sVneoplasms
p2648
I2010
sVintegral
p2649
I862
sVelasticity
p2650
I2950
sVnsf
p2651
I3599
sVservices
p2652
I2699
sVappropriate
p2653
I394
sValpha
p2654
I1985
sVarbitrage
p2655
I2
sVadequacy
p2656
I2921
sVresilience
p2657
I2300
sVintraday
p2658
I1580
sVbankruptcy
p2659
I756
sVuncertainties
p2660
I431
sVontario
p2661
I549
sVcomputer
p2662
I3143
sVrenewal
p2663
I3162
sVactuarial
p2664
I2913
sVquestion
p2665
I1445
sVfast
p2666
I404
sVprocyclical
p2667
I3155
sVturnbull
p2668
I1960
sVborel
p2669
I2603
sVhandbook
p2670
I1129
sVforward
p2671
I406
sVtranslate
p2672
I1805
sVpropagator
p2673
I3036
sVconditional
p2674
I977
sVconover
p2675
I2781
sV0739195
p2676
I3596
sVmemory
p2677
I1070
sVgauss
p2678
I2785
sVsde
p2679
I1663
sVlink
p2680
I1429
sVsegregation
p2681
I3184
sVdelta
p2682
I1030
sVrussian
p2683
I1209
sVline
p2684
I2109
sVjunior
p2685
I761
sVobservation
p2686
I1443
sVfades
p2687
I2639
sVinverse
p2688
I1263
sVpriorimodels
p2689
I1441
sVgeneity
p2690
I1614
sVcircuits
p2691
I1497
sVcharacteristic
p2692
I1650
sVus
p2693
I1745
sVmaturity
p2694
I83
sVhomo
p2695
I1586
sVexploration
p2696
I3144
sVverification
p2697
I2242
sVuk
p2698
I889
sVaversion
p2699
I695
sVheterogeneous
p2700
I665
sVfluctuations
p2701
I2055
sVautonomous
p2702
I3526
sVsimilar
p2703
I822
sVcalled
p2704
I1044
sVordered
p2705
I1361
sVdefined
p2706
I1480
sVspecified
p2707
I2446
sVinfluence
p2708
I717
sVaccessibility
p2709
I2631
sVmetals
p2710
I590
sVpackage
p2711
I3508
sVjeanblanc2
p2712
I3471
sVquantification
p2713
I428
sVsingle
p2714
I114
sVwarning
p2715
I3510
sVrolling
p2716
I2215
sVportmanteau
p2717
I3338
sVhome
p2718
I2972
sVunvested
p2719
I3219
sVmodeling
p2720
I1646
sVformalism
p2721
I2243
sVbracket
p2722
I2153
sVparadox
p2723
I2595
sVamounts
p2724
I2373
sVpriors
p2725
I470
sVapplication
p2726
I332
sVpoints
p2727
I971
sVrecognition
p2728
I1669
sVsubordinator
p2729
I3067
sVincome
p2730
I1598
sVarithmetic
p2731
I958
sVsmiles
p2732
I1891
sVelements
p2733
I442
sVusers
p2734
I2100
sVexcitation
p2735
I3172
sVsided
p2736
I1660
sVproblems
p2737
I474
sVpolynomials
p2738
I1151
sVassimilation
p2739
I2381
sVlens
p2740
I3097
sVgenerated
p2741
I1909
sVslice
p2742
I2174
sVlunch
p2743
I2567
sVfisher
p2744
I713
sVqrmtools
p2745
I3511
sVaggregated
p2746
I1430
sVstructure
p2747
I523
sVdimensions
p2748
I1629
sVagl
p2749
I1278
sVmethodologies
p2750
I1639
sValgorithm
p2751
I528
sVvice
p2752
I1683
sVage
p2753
I2016
sVvehicles
p2754
I2247
sVdva
p2755
I2854
sVheath
p2756
I940
sVtradeoff
p2757
I3156
sVdepth
p2758
I2438
sVimplied
p2759
I127
sVweights
p2760
I386
sVarbenz
p2761
I2705
sVfailures
p2762
I534
sVnash
p2763
I1842
sVimprecise
p2764
I449
sVborrowing
p2765
I2190
sVgt
p2766
I1202
sVpartial
p2767
I460
sVexisting
p2768
I3006
sVclassic
p2769
I2783
sVjaisson
p2770
I1906
sVkato
p2771
I2036
sVadjustment
p2772
I804
sVissues
p2773
I870
sVrigidity
p2774
I330
sVcompact
p2775
I78
sVspector
p2776
I81
sVshevchenko
p2777
I1506
sVbarter
p2778
I2371
sVdisposal
p2779
I2821
sVconcerned
p2780
I247
sVshanghai
p2781
I211
sVuniqueness
p2782
I2138
sVelicitable
p2783
I871
sVstable
p2784
I156
sVquarterly
p2785
I1735
sVdiebold
p2786
I1779
sVwomen
p2787
I1599
sVresources
p2788
I601
sVingredient
p2789
I515
sVstatics
p2790
I1211
sVadvisors
p2791
I3202
sVmainstream
p2792
I1337
sVportfolios
p2793
I206
sVunstructured
p2794
I1428
sVtradeoffs
p2795
I2609
sVdecompostion
p2796
I3569
sVmatrices
p2797
I1611
sVcategories
p2798
I3661
sVentire
p2799
I1218
sVtokyo
p2800
I2455
sVbacktesting
p2801
I881
sVpositions
p2802
I2185
sVshock
p2803
I823
sVprototypes
p2804
I1298
sVdeals
p2805
I3025
sVevy
p2806
I991
sVdiscounting
p2807
I1637
sVepstein
p2808
I485
sVeigenvalues
p2809
I2475
sVevs
p2810
I2258
sVconfigurations
p2811
I1980
sVdeformed
p2812
I3081
sVimpli
p2813
I2867
sVclients
p2814
I2335
sVdisordered
p2815
I1362
sVfolds
p2816
I1869
sVcds
p2817
I2658
sVjump
p2818
I69
sVdynamics
p2819
I329
sVcarlo
p2820
I77
sVmakers
p2821
I1385
sVindex
p2822
I722
sVplays
p2823
I3573
sVunavailable
p2824
I1203
sVpaintings
p2825
I2030
sVlehman
p2826
I2510
sVhypercube
p2827
I2794
sVmarketed
p2828
I1511
sVbearish
p2829
I197
sVexpressed
p2830
I2873
sVfind
p2831
I2980
sVaccess
p2832
I1527
sVindian
p2833
I1141
sVvolatile
p2834
I554
sVcapital
p2835
I334
sVfirms
p2836
I514
sVfundamentalist
p2837
I3149
sVexercise
p2838
I362
sVthin
p2839
I3475
sVbody
p2840
I2083
sVmultivariate
p2841
I576
sVjustification
p2842
I949
sVlee
p2843
I1767
sVdegree
p2844
I757
sVexchange
p2845
I205
sVcommercial
p2846
I2811
sVnonexistent
p2847
I2694
sVexplore
p2848
I2126
sVobjects
p2849
I2027
sVothers
p2850
I792
sVconsideration
p2851
I3435
sVextrema
p2852
I3431
sVmises
p2853
I2877
sVimplicit
p2854
I45
sVextreme
p2855
I267
sVbicorrelation
p2856
I3334
sVgreat
p2857
I168
sVtalent
p2858
I2158
sVindivisible
p2859
I2377
sVtechnical
p2860
I746
sVinvolved
p2861
I1699
sVcloseout
p2862
I2708
sVproducts
p2863
I635
sVsituations
p2864
I1594
sVopinion
p2865
I2654
sVimplement
p2866
I3562
sVspatio
p2867
I3609
sVpayoffs
p2868
I1286
sVholmes
p2869
I3087
sVsgx
p2870
I3450
sVnamed
p2871
I2584
sVstabilization
p2872
I1665
sVscales
p2873
I248
sVattraction
p2874
I3659
sVintegrations
p2875
I3650
sVprivate
p2876
I669
sVoutcomes
p2877
I497
sVscaled
p2878
I909
sVnames
p2879
I2662
sVtools
p2880
I503
sVanalyses
p2881
I164
sVstanding
p2882
I1656
sVfissler
p2883
I1776
sVuse
p2884
I867
sVfee
p2885
I1505
sVasymptotic
p2886
I82
sVconsumption
p2887
I469
sVchi
p2888
I1252
sVpedagogical
p2889
I2738
sVnext
p2890
I2760
sVcalculation
p2891
I2413
sVdoubt
p2892
I2193
sVsolvency
p2893
I3111
sVvehicle
p2894
I1541
sVtiming
p2895
I3388
sVnoisy
p2896
I2293
sVdefendant
p2897
I3094
sVpayout
p2898
I2390
sVfactor
p2899
I405
sVbenchmark
p2900
I735
sVtransient
p2901
I263
sViii
p2902
I1771
sVletfs
p2903
I316
sVaccount
p2904
I1474
sVskorokhod
p2905
I1168
sVfrobenius
p2906
I2606
sVsabr
p2907
I120
sVchallenge
p2908
I1326
sVcontagion
p2909
I2333
sVantonov
p2910
I79
sVassumptions
p2911
I919
sVobvious
p2912
I229
sVminimisation
p2913
I2184
sVbackwards
p2914
I2415
sVdrops
p2915
I3178
sVaverages
p2916
I1321
sVscatter
p2917
I2486
sVproof
p2918
I1788
sVcontrol
p2919
I459
sVlinks
p2920
I642
sVproviders
p2921
I2692
sVprocess
p2922
I390
sVproportions
p2923
I2202
sVinaccessible
p2924
I1951
sVtax
p2925
I1282
sVpurposes
p2926
I426
sVreinforcing
p2927
I2337
sVhigh
p2928
I143
sVreserves
p2929
I591
sVtaking
p2930
I3260
sVstories
p2931
I2439
sVserial
p2932
I1276
sVdominant
p2933
I3014
sVmaturities
p2934
I982
sVperspectives
p2935
I3161
sVtradable
p2936
I3027
sVdifferentiability
p2937
I1017
sVarrangement
p2938
I2397
sVdelay
p2939
I1687
sVbaumol
p2940
I1878
sVattachment
p2941
I2213
sVinstead
p2942
I2791
sVstoch
p2943
I1175
sVstock
p2944
I200
sVprofile
p2945
I1831
sVnpl
p2946
I2767
sVyoshikawa
p2947
I282
sVsingular
p2948
I962
sVspecifications
p2949
I444
sVcollection
p2950
I2311
sVscalable
p2951
I3236
sVtractability
p2952
I1317
sVmixed
p2953
I462
sVsociety
p2954
I2696
sVties
p2955
I2166
sVengineering
p2956
I2409
sVambiguous
p2957
I1883
sVrealized
p2958
I903
sVtransitive
p2959
I2647
sVcomputations
p2960
I2982
sVlight
p2961
I1297
sVcounter
p2962
I1697
sVlines
p2963
I2935
sVaverse
p2964
I2122
sVcommodities
p2965
I614
sV2d
p2966
I3380
sVas12
p2967
I129
sVexhange
p2968
I323
sVtransitivity
p2969
I2648
sVbipartite
p2970
I2284
sVevolutionary
p2971
I2625
sVreversal
p2972
I1932
sVinstitutional
p2973
I2394
sVinsight
p2974
I1420
sVbyproducts
p2975
I589
sVmateriality
p2976
I2991
sVwhilst
p2977
I1992
sVifrs
p2978
I2755
sVagricultural
p2979
I3336
sVsemeraro
p2980
I3069
sVoperative
p2981
I3289
sVperfect
p2982
I2993
sVsuperior
p2983
I366
sVblake
p2984
I1758
sVle
p2985
I106
sVdecay
p2986
I2521
sVlo
p2987
I807
sVtemporal
p2988
I1972
sVlm
p2989
I86
sVarrangements
p2990
I3521
sVfiniteness
p2991
I2581
sVlabor
p2992
I1596
sVpapanicolaou
p2993
I1342
sVlt
p2994
I91
sVtyler
p2995
I910
sVcausal
p2996
I3227
sVpublication
p2997
I2541
sVlq
p2998
I1786
sVderivative
p2999
I1415
sVcriminal
p3000
I3093
sVhealth
p3001
I2006
sVforest
p3002
I2308
sVcrash
p3003
I3150
sVfourth
p3004
I1320
sVauto
p3005
I1268
sVpractice
p3006
I629
sVmerton
p3007
I1952
sVoperator
p3008
I921
sVcommitment
p3009
I1791
sVnewman
p3010
I3141
sVabreu
p3011
I3065
sVhands
p3012
I1544
sVmicroeconomic
p3013
I1471
sVconsecutive
p3014
I3304
sVinvestor
p3015
I397
sVday
p3016
I552
sVarticles
p3017
I1432
sVsubsidiaries
p3018
I3541
sVsobol
p3019
I169
sVprogressive
p3020
I3469
sVpanic
p3021
I1461
sVhellinger
p3022
I2470
sVfreshness
p3023
I1088
sVidentified
p3024
I1974
sVunpredictable
p3025
I3080
sVmagnitude
p3026
I3076
sVl2
p3027
I55
sVmode
p3028
I2803
sVl1
p3029
I2181
sVcrossing
p3030
I3480
sVreferences
p3031
I2410
sVpides
p3032
I3066
sVconstraints
p3033
I488
sVsubset
p3034
I1533
sVinputs
p3035
I2839
sVstrip
p3036
I3004
sVproduct
p3037
I682
sVrelated
p3038
I463
sVconstitute
p3039
I1839
sVdeficiency
p3040
I573
sV89
p3041
I1128
sVstatic
p3042
I1358
sVvariety
p3043
I1401
sVmeasure
p3044
I11
sVmargins
p3045
I2792
sVpareto
p3046
I544
sVagriculture
p3047
I3351
sVspecial
p3048
I1146
sVbacktested
p3049
I1290
sVsovereign
p3050
I1916
sVmatrix
p3051
I904
sVsentiment
p3052
I2379
sVfrontier
p3053
I3407
sVhouse
p3054
I3408
sVopposite
p3055
I3158
sVchaos
p3056
I3210
sVnadaraya
p3057
I3193
sVbehaviours
p3058
I1904
sVasymmetries
p3059
I1459
sVlibor
p3060
I2065
sVadaptive
p3061
I1561
sVcause
p3062
I2008
sVintegrated
p3063
I815
sVmath
p3064
I1348
sVfranc
p3065
I1806
sVinteractions
p3066
I443
sVoptimised
p3067
I3234
sVsouthern
p3068
I2573
sVcontrarian
p3069
I207
sVperron
p3070
I2610
sVapproaches
p3071
I285
sVhazard
p3072
I3623
sVregulatory
p3073
I522
sVbusiness
p3074
I1467
sVinadvertent
p3075
I2680
sVthorin
p3076
I3063
sVinteraction
p3077
I1343
sVmainland
p3078
I3487
sVsustainability
p3079
I1880
sVroute
p3080
I1898
sVput
p3081
I3192
sVtimes
p3082
I451
sVkeen
p3083
I3590
sVlength
p3084
I1068
sVderivations
p3085
I1319
sVassumed
p3086
I2545
sVbarriers
p3087
I973
sVsouth
p3088
I2580
sVkendall
p3089
I3124
sVendowments
p3090
I491
sVpga
p3091
I3232
sV453
p3092
I1818
sVpowerful
p3093
I1698
sVstrategic
p3094
I3165
sVrandomized
p3095
I1752
sVimprovements
p3096
I3509
sVoccurrences
p3097
I2669
sVowner
p3098
I3303
sVblows
p3099
I76
sVquality
p3100
I2080
sVnyse
p3101
I2351
sVregulations
p3102
I3589
sVaccurate
p3103
I2353
sVmanagement
p3104
I149
sVreference
p3105
I1565
sVpractitioners
p3106
I192
sVunknown
p3107
I1025
sVadjoint
p3108
I3118
sVsystem
p3109
I509
sVrelations
p3110
I2537
sVclearinghouses
p3111
I2614
sVintermediate
p3112
I2385
sVbrainless
p3113
I1815
sVsiam
p3114
I1346
sVbehaved
p3115
I2518
sVperipheral
p3116
I1727
sVprone
p3117
I1963
sVinterests
p3118
I2689
sVenforcement
p3119
I2968
sVtesting
p3120
I1990
sVmariano
p3121
I1775
sVexplanation
p3122
I1879
sVschweizer
p3123
I3565
sVsuitability
p3124
I1470
sVmanipulation
p3125
I2068
sVbranches
p3126
I3109
sVjuly
p3127
I2769
sVdistinction
p3128
I1926
sVinstitution
p3129
I774
sVchone
p3130
I688
sVoutline
p3131
I2735
sVdetection
p3132
I1667
sVcommodity
p3133
I1180
sVcharacterizations
p3134
I2203
sVincompleteness
p3135
I1465
sVamplitude
p3136
I1918
sVbare
p3137
I3300
sVsteep
p3138
I1920
sVdistinguished
p3139
I1695
sVcreditors
p3140
I3268
sVprojections
p3141
I2589
sVexhibit
p3142
I234
sVfluctuation
p3143
I539
sVcrra
p3144
I1150
sVcurves
p3145
I1370
sVsv
p3146
I3559
sVdiscussions
p3147
I2442
sVunlikely
p3148
I3347
sVuganda
p3149
I3348
sVneed
p3150
I1769
sVconstrained
p3151
I2487
sVdemonstration
p3152
I3185
sVlinked
p3153
I3615
sVintercepts
p3154
I3402
sVmappings
p3155
I1774
sVghe
p3156
I2500
sVtouzi
p3157
I3466
sVable
p3158
I22
sVmid
p3159
I551
sVmechanism
p3160
I787
sVmix
p3161
I2228
sVbest
p3162
I2964
sVguasoni
p3163
I2270
sVsubintervals
p3164
I2906
sVmis
p3165
I2926
sVsubject
p3166
I1532
sVpersistence
p3167
I1075
sVaccuracy
p3168
I707
sVcalculus
p3169
I1013
sVregard
p3170
I872
sVaxiomatic
p3171
I1543
sVx_2
p3172
I3073
sVcollaboration
p3173
I3536
sVconnected
p3174
I1477
sVrepresentation
p3175
I1055
sVprisoner
p3176
I3146
sVintrinsic
p3177
I2069
sVclass
p3178
I303
sVsubjective
p3179
I1846
sVplacement
p3180
I3578
sVconsequences
p3181
I1550
sVurn
p3182
I3130
sVrepeated
p3183
I1715
sVface
p3184
I3588
sVgraphs
p3185
I1593
sVcapita
p3186
I1888
sVhierarchical
p3187
I2704
sVmechanical
p3188
I709
sVdeng
p3189
I3478
sVfact
p3190
I1555
sVgain
p3191
I2683
sVatmosphere
p3192
I3292
sVselection
p3193
I388
sVviolation
p3194
I1868
sVtext
p3195
I1419
sVlongevity
p3196
I1766
sVplanning
p3197
I1975
sVportfolio
p3198
I39
sVtrivial
p3199
I1635
sVdebate
p3200
I1588
sVprincipal
p3201
I795
sVpostulates
p3202
I3053
sVpartners
p3203
I1590
sVx_1
p3204
I2956
sVforex
p3205
I2347
sVknowledge
p3206
I368
sVeigenspace
p3207
I3208
sVirreversible
p3208
I2403
sVwinner
p3209
I196
sVbasel
p3210
I2759
sVcontrols
p3211
I1783
sVoperational
p3212
I1645
sVterminal
p3213
I304
sVentities
p3214
I510
sVunable
p3215
I3288
sVambiguity
p3216
I1154
sVfuel
p3217
I605
sVmarriage
p3218
I3362
sVlocal
p3219
I121
sVhopf
p3220
I2936
sVmortality
p3221
I1773
sVequilibrium
p3222
I653
sVkallsen
p3223
I3045
sVvariational
p3224
I2039
sVbonds
p3225
I934
sVoverall
p3226
I1701
sVbear
p3227
I1300
sVconvolution
p3228
I3058
sVjoint
p3229
I684
sVones
p3230
I657
sVwords
p3231
I771
sVexchanges
p3232
I214
sVbuyer
p3233
I1112
sVdmd
p3234
I2797
sVentity
p3235
I2280
sVprocedures
p3236
I2192
sVsteepness
p3237
I1901
sVareas
p3238
I3632
sVevolution
p3239
I1339
sVcommittees
p3240
I1819
sVdensities
p3241
I777
sVcourse
p3242
I1917
sVnumerous
p3243
I2444
sVgbm
p3244
I1138
sVexpansions
p3245
I294
sVtaxes
p3246
I2897
sVwholesale
p3247
I2498
sVfixed
p3248
I1031
sVgenerations
p3249
I3387
sVview
p3250
I537
sVprogrammingapproach
p3251
I1438
sVpredictive
p3252
I715
sVrequirement
p3253
I1235
sVmotions
p3254
I1793
sVgalerkin
p3255
I2481
sVapproximating
p3256
I2660
sVsmooth
p3257
I1885
sVnational
p3258
I1790
sVcorrelations
p3259
I1728
sVintensity
p3260
I70
sVlegacy
p3261
I2289
sVusefulness
p3262
I1827
sVenhanced
p3263
I3308
sVoperated
p3264
I2732
sVbidders
p3265
I1158
sVbattery
p3266
I3335
sVrtfs
p3267
I3606
sVautarky
p3268
I2898
sVhilbert
p3269
I1700
sVvisegrad
p3270
I2571
sVpattern
p3271
I2226
sVtend
p3272
I250
sVfavor
p3273
I2383
sVstate
p3274
I700
sVdms
p3275
I3598
sVidentification
p3276
I680
sVwavelet
p3277
I2239
sVclosed
p3278
I94
sVroutine
p3279
I2590
sVcrude
p3280
I3159
sVinvariant
p3281
I978
sVotc
p3282
I1739
sVluo
p3283
I1522
sVcounterexample
p3284
I2107
sVimbalance
p3285
I3639
sVcomparable
p3286
I2041
sVexplosive
p3287
I2930
sVability
p3288
I732
sVimportance
p3289
I986
sVbuckets
p3290
I1367
sVagencies
p3291
I1570
sVefficiency
p3292
I736
sVjob
p3293
I381
sVhypothesis
p3294
I1256
sVkey
p3295
I490
sVprecious
p3296
I3462
sVoptional
p3297
I1557
sVrestrictions
p3298
I689
sVinterpretations
p3299
I1409
sVlimits
p3300
I50
sVevolutions
p3301
I3026
sVepidemics
p3302
I2909
sVminutes
p3303
I3640
sVinvited
p3304
I3104
sVequal
p3305
I1632
sVhirz
p3306
I2021
sVapril
p3307
I745
sVheliospheric
p3308
I3138
sVfigures
p3309
I136
sVauctions
p3310
I791
sVilliquid
p3311
I2433
sVattributes
p3312
I1009
sVestimation
p3313
I219
sVtrajectories
p3314
I1602
sVgrounds
p3315
I2819
sVadjusted
p3316
I2502
sVrelevant
p3317
I489
sVco
p3318
I1724
sVauthor
p3319
I3600
sVperiodic
p3320
I2937
sVpoissonian
p3321
I3174
sVclues
p3322
I2313
sVcoexistence
p3323
I3024
sVenvironments
p3324
I918
sVwalk
p3325
I1792
sVx_t
p3326
I2959
sVtaylor
p3327
I3043
sVsuboptimal
p3328
I2164
sVnews
p3329
I1307
sVcs
p3330
I793
sVkings
p3331
I240
sVprovinces
p3332
I548
sVpiecewise
p3333
I2427
sVaddition
p3334
I621
sVdiscrimination
p3335
I677
sVdistributional
p3336
I1424
sVcharts
p3337
I3426
sVrepatriation
p3338
I2969
sVgenetic
p3339
I3239
sVpermanent
p3340
I928
sVteamwork
p3341
I790
sVagreements
p3342
I3179
sVindicators
p3343
I600
sVproposal
p3344
I1460
sVoutliers
p3345
I252
sVremedies
p3346
I1464
sVeurozone
p3347
I2509
sVdeterminant
p3348
I3419
sVcontribute
p3349
I2295
sVdiversity
p3350
I1221
sVvaluations
p3351
I3200
sVsufficient
p3352
I683
sVcoherence
p3353
I875
sVlgd
p3354
I2768
sVal
p3355
I1089
sVhayashi
p3356
I2863
sVzero
p3357
I2602
sVshortfall
p3358
I879
sVbull
p3359
I1305
sVprudential
p3360
I2277
sVorsa
p3361
I3112
sVpresent
p3362
I340
sVbifurcations
p3363
I2941
sVkenya
p3364
I3350
sVmulti
p3365
I352
sVnovel
p3366
I526
sVpdmp
p3367
I2425
sVcontexts
p3368
I2723
sVvanilla
p3369
I2071
sVfreeness
p3370
I3049
sVappearance
p3371
I2643
sVtheta_
p3372
I2074
sVvalue
p3373
I321
sVchoices
p3374
I1410
sVwild
p3375
I3015
sVcounterparties
p3376
I1705
sVultra
p3377
I3461
sVpidvi
p3378
I3221
sVcva
p3379
I2862
sVve
p3380
I798
sVchaotic
p3381
I2064
sVdiversification
p3382
I861
sVwalks
p3383
I2291
sVsite
p3384
I2725
sVsurface
p3385
I2178
sVrandomization
p3386
I3527
sVvs
p3387
I144
sVazema
p3388
I1950
sVsafarian
p3389
I1082
sVdual
p3390
I356
sVlifetime
p3391
I2401
sVconvection
p3392
I3561
sVregression
p3393
I1389
sVcapture
p3394
I596
sVproductivity
p3395
I283
sVgeneric
p3396
I2552
sVidentities
p3397
I828
sVcross
p3398
I1915
sVmember
p3399
I2431
sVadverse
p3400
I1196
sVunity
p3401
I579
sVparts
p3402
I1597
sVdigital
p3403
I988
sVpauli
p3404
I1484
sVunits
p3405
I650
sVparty
p3406
I1736
sVfinite
p3407
I28
sVv_
p3408
I2082
sVmaterial
p3409
I2988
sVinfinity
p3410
I1659
sVcubic
p3411
I3311
sVreverting
p3412
I3392
sVeffect
p3413
I209
sVforecasts
p3414
I876
sVcomonotocity
p3415
I3074
sVstudent
p3416
I1654
sVuni
p3417
I658
sVinfinite
p3418
I7
sVqubit
p3419
I1501
sVconcordance
p3420
I3126
sVtransaction
p3421
I49
sVdiscounted
p3422
I1563
sVreflection
p3423
I2266
sVneural
p3424
I1436
sVbsdes
p3425
I3187
sVingredients
p3426
I506
sVwell
p3427
I320
sVpatterns
p3428
I1686
sVsets
p3429
I664
sVposition
p3430
I1855
sVsensing
p3431
I2183
sVrealised
p3432
I1042
sVsdes
p3433
I2141
sVroome
p3434
I1893
sVexcessive
p3435
I1453
sVless
p3436
I2736
sVmoments
p3437
I800
sVstorage
p3438
I3532
sVproximity
p3439
I2208
sVforests
p3440
I2303
sVsources
p3441
I855
sVunderlying
p3442
I2365
sVbooks
p3443
I2432
sVpaul
p3444
I3256
sVmacroscopic
p3445
I2323
sVmaterialization
p3446
I1545
sVweb
p3447
I3583
sVfernholz
p3448
I1123
sVmacroprudential
p3449
I524
sVmadan
p3450
I2221
sVdensity
p3451
I676
sVabsorption
p3452
I1672
sVsupply
p3453
I587
sVdemographic
p3454
I2912
sVcapabilities
p3455
I2989
sVtransparent
p3456
I1336
sVthermodynamics
p3457
I2633
sVattractive
p3458
I3645
sVsemigroup
p3459
I2038
sVski
p3460
I3007
sVunprecedented
p3461
I3581
sVsmart
p3462
I2105
sVadi
p3463
I3563
sVidentical
p3464
I2599
sVtests
p3465
I1254
sVrenotioning
p3466
I2113
sVdisappearance
p3467
I1181
sVimex
p3468
I3557
sVextremization
p3469
I710
sVinversion
p3470
I3322
sVwto
p3471
I2818
sVp_
p3472
I1107
sVincreases
p3473
I131
sVhistoric
p3474
I558
sVfive
p3475
I737
sVgambling
p3476
I2534
sVdirac
p3477
I2600
sVtick
p3478
I1664
sVhermite
p3479
I3315
sVprominent
p3480
I1548
sVloss
p3481
I1147
sVnecessary
p3482
I1780
sVshephard
p3483
I1023
sVsuccess
p3484
I1749
sVsizes
p3485
I271
sVsplitting
p3486
I3442
sVpurchasing
p3487
I2396
sVperpetual
p3488
I3214
sVloser
p3489
I226
sVtaxpayers
p3490
I2594
sVtraders
p3491
I1800
sVpayments
p3492
I1283
sVcomplementarity
p3493
I3560
sVmartin
p3494
I1053
sVunderestimation
p3495
I845
sVbecome
p3496
I230
sVcac40
p3497
I3040
sVworks
p3498
I2710
sVreplacement
p3499
I886
sVpoor
p3500
I3617
sVshed
p3501
I1291
sVliquidation
p3502
I946
sVclusters
p3503
I3242
sVclassical
p3504
I364
sVsequence
p3505
I570
sVforeseeable
p3506
I3344
sVconcave
p3507
I3616
sVintensities
p3508
I3484
sVphenomena
p3509
I393
sVauthority
p3510
I496
sVplatforms
p3511
I3575
sVgrowth
p3512
I92
sVexport
p3513
I2677
sVconvex
p3514
I1397
sVproper
p3515
I2492
sVstar
p3516
I1603
sVproofs
p3517
I3279
sVemployment
p3518
I1601
sVeconometrics
p3519
I2227
sVtransport
p3520
I1636
sVrenyi
p3521
I763
sVlead
p3522
I2711
sVbroad
p3523
I1169
sVleveraged
p3524
I302
sVinterdependencies
p3525
I2664
sVoverlap
p3526
I2713
sVinstantaneous
p3527
I1902
sVexpensive
p3528
I3123
sVeconomical
p3529
I3133
sVeso
p3530
I3216
sVconservatism
p3531
I2774
sVgrameen
p3532
I3630
sVleverages
p3533
I833
sVtrap
p3534
I3363
sVlimitations
p3535
I834
sVbiology
p3536
I2635
sVnoise
p3537
I1922
sVcyclicality
p3538
I2495
sVmonetary
p3539
I2812
sVexpansion
p3540
I107
sVexpiry
p3541
I990
sVbundle
p3542
I2562
sVjava
p3543
I2369
sVriskless
p3544
I1285
sVloans
p3545
I773
sVnafl
p3546
I1962
sVpanel
p3547
I1612
sVpagliarani
p3548
I98
sVactual
p3549
I1311
sVworld
p3550
I265
sVsaddle
p3551
I2932
sVcertainty
p3552
I1212
sVincomes
p3553
I2838
sVdependence
p3554
I274
sVdependency
p3555
I1277
sVextension
p3556
I1280
sVhallmark
p3557
I3584
sVtailed
p3558
I768
sVintroduced
p3559
I1691
sVising
p3560
I1492
sVhomogeneous
p3561
I1581
sVdiscretization
p3562
I134
sVacceptance
p3563
I3325
sVunsustainable
p3564
I2820
sVprimal
p3565
I3277
sVzones
p3566
I2777
sVfunctional
p3567
I67
sVdataset
p3568
I1571
sVweighted
p3569
I1220
sVinterdependence
p3570
I1274
sVestimators
p3571
I803
sVbombay
p3572
I3503
sVutility
p3573
I465
sVridge
p3574
I2722
sVadditional
p3575
I505
sVtransfer
p3576
I844
sVlagged
p3577
I1314
sVmicroprudential
p3578
I3154
sVspots
p3579
I2800
sVquadratic
p3580
I4
sVinner
p3581
I2104
sVvar
p3582
I704
sVsuzuki
p3583
I1022
sVfiscal
p3584
I2892
sVbuy
p3585
I1658
sVnorth
p3586
I2497
sVinterest
p3587
I625
sVinsurer
p3588
I2013
sVfunds
p3589
I1242
sVcaratheodory
p3590
I2645
sVoverlapping
p3591
I3421
sVvolume
p3592
I38
sVneutral
p3593
I476
sVconstruction
p3594
I520
sVho
p3595
I2556
sVcourts
p3596
I3098
sVconvergence
p3597
I163
sVhighest
p3598
I165
sVvaluation
p3599
I339
sVillustrative
p3600
I3301
sVbilateral
p3601
I1693
sVchallenges
p3602
I3195
sVdated
p3603
I3614
sVcoefficients
p3604
I1442
sVh_
p3605
I2241
sVevident
p3606
I221
sVannuities
p3607
I1516
sVcells
p3608
I3657
sVofficial
p3609
I1744
sVvariations
p3610
I1316
sVsigned
p3611
I2601
sVimbalances
p3612
I2695
sVlaguerre
p3613
I2025
sVrecord
p3614
I3643
sVfrequency
p3615
I895
sVlimit
p3616
I972
sVcomputable
p3617
I3008
sVdistribution
p3618
I277
sVinformational
p3619
I2551
sVaveraged
p3620
I2830
sVblock
p3621
I2592
sVdeaths
p3622
I2003
sVuniversal
p3623
I3346
sVyear
p3624
I719
sVlinearity
p3625
I3169
sVlife
p3626
I2009
sVexogenous
p3627
I236
sVcovariances
p3628
I3082
sVlived
p3629
I3439
sVerdos
p3630
I753
sVperiods
p3631
I190
sVgoodness
p3632
I2421
sVcifuentes
p3633
I2750
sVeducation
p3634
I2676
sVpit
p3635
I865
sVproceeds
p3636
I3271
sVfunctions
p3637
I674
sVmorton
p3638
I922
sVreadjustments
p3639
I1078
sVcalibration
p3640
I985
sVheuristic
p3641
I3531
sVcorporation
p3642
I3410
sVpercent
p3643
I1877
sVdetail
p3644
I152
sVdisjoint
p3645
I3243
sVbook
p3646
I1007
sVdetails
p3647
I1737
sVsupermartingale
p3648
I1959
sVnonincreasing
p3649
I2520
sVconclusion
p3650
I1404
sVpsid
p3651
I1589
sVkinds
p3652
I765
sVutilised
p3653
I2924
sVjune
p3654
I734
sVvariation
p3655
I37
sVstay
p3656
I3414
sVintransitive
p3657
I2637
sVenlargement
p3658
I1947
sVrichardson
p3659
I3663
sVmarkowitz
p3660
I3411
sVexposure
p3661
I1708
sVsearches
p3662
I2368
sVstationarities
p3663
I3078
sVauxiliary
p3664
I3275
sVp500
p3665
I1822
sVspace
p3666
I1538
sVpersistent
p3667
I565
sVrule
p3668
I743
sVportion
p3669
I1386
sVwrite
p3670
I2564
sVpension
p3671
I2402
sVvolumes
p3672
I1566
sVrural
p3673
I2317
sVvalidation
p3674
I2585
sVretirees
p3675
I3206
sVsemilinear
p3676
I1451
ssS'dfs'
p3677
(dp3678
I0
I11
sI1
I8
sI2
I34
sI3
I53
sI4
I10
sI5
I22
sI6
I23
sI7
I11
sI8
I123
sI9
I2
sI10
I52
sI11
I52
sI12
I40
sI13
I154
sI14
I14
sI15
I52
sI16
I8
sI17
I13
sI18
I13
sI19
I2
sI20
I10
sI21
I18
sI22
I20
sI23
I8
sI24
I12
sI25
I12
sI26
I58
sI27
I25
sI28
I25
sI29
I51
sI30
I13
sI31
I34
sI32
I45
sI33
I28
sI34
I114
sI35
I43
sI36
I37
sI37
I17
sI38
I13
sI39
I50
sI40
I9
sI41
I34
sI42
I9
sI43
I2
sI44
I15
sI45
I8
sI46
I17
sI47
I8
sI48
I6
sI49
I19
sI50
I5
sI51
I2
sI52
I16
sI53
I53
sI54
I33
sI55
I2
sI56
I24
sI57
I5
sI58
I52
sI59
I6
sI60
I6
sI61
I5
sI62
I16
sI63
I2
sI64
I1
sI65
I2
sI66
I5
sI67
I11
sI68
I68
sI69
I11
sI70
I7
sI71
I1
sI72
I1
sI73
I48
sI74
I9
sI75
I7
sI76
I1
sI77
I16
sI78
I5
sI79
I1
sI80
I58
sI81
I1
sI82
I20
sI83
I15
sI84
I1
sI85
I38
sI86
I1
sI87
I3
sI88
I18
sI89
I6
sI90
I18
sI91
I2
sI92
I18
sI93
I3
sI94
I17
sI95
I6
sI96
I48
sI97
I2
sI98
I1
sI99
I38
sI100
I16
sI101
I15
sI102
I4
sI103
I4
sI104
I14
sI105
I1
sI106
I1
sI107
I15
sI108
I6
sI109
I99
sI110
I11
sI111
I11
sI112
I4
sI113
I1
sI114
I11
sI115
I68
sI116
I24
sI117
I9
sI118
I11
sI119
I1
sI120
I3
sI121
I28
sI122
I2
sI123
I3
sI124
I21
sI125
I1
sI126
I1
sI127
I16
sI128
I1
sI129
I1
sI130
I1
sI131
I10
sI132
I1
sI133
I2
sI134
I4
sI135
I9
sI136
I1
sI137
I19
sI138
I10
sI139
I10
sI140
I4
sI141
I27
sI142
I1
sI143
I32
sI144
I1
sI145
I4
sI146
I1
sI147
I17
sI148
I19
sI149
I16
sI150
I2
sI151
I13
sI152
I9
sI153
I9
sI154
I14
sI155
I3
sI156
I19
sI157
I24
sI158
I9
sI159
I125
sI160
I7
sI161
I27
sI162
I3
sI163
I16
sI164
I2
sI165
I1
sI166
I3
sI167
I22
sI168
I7
sI169
I1
sI170
I11
sI171
I1
sI172
I18
sI173
I3
sI174
I1
sI175
I11
sI176
I14
sI177
I10
sI178
I11
sI179
I2
sI180
I2
sI181
I4
sI182
I1
sI183
I1
sI184
I1
sI185
I2
sI186
I1
sI187
I3
sI188
I4
sI189
I13
sI190
I10
sI191
I21
sI192
I5
sI193
I1
sI194
I36
sI195
I22
sI196
I1
sI197
I1
sI198
I31
sI199
I32
sI200
I46
sI201
I3
sI202
I1
sI203
I10
sI204
I2
sI205
I18
sI206
I21
sI207
I2
sI208
I9
sI209
I22
sI210
I30
sI211
I2
sI212
I1
sI213
I22
sI214
I10
sI215
I20
sI216
I14
sI217
I10
sI218
I31
sI219
I27
sI220
I1
sI221
I2
sI222
I6
sI223
I3
sI224
I3
sI225
I14
sI226
I1
sI227
I10
sI228
I7
sI229
I2
sI230
I2
sI231
I1
sI232
I8
sI233
I1
sI234
I2
sI235
I13
sI236
I14
sI237
I6
sI238
I9
sI239
I6
sI240
I1
sI241
I1
sI242
I30
sI243
I16
sI244
I2
sI245
I13
sI246
I9
sI247
I1
sI248
I12
sI249
I11
sI250
I4
sI251
I3
sI252
I3
sI253
I10
sI254
I2
sI255
I1
sI256
I17
sI257
I4
sI258
I15
sI259
I11
sI260
I3
sI261
I1
sI262
I1
sI263
I2
sI264
I6
sI265
I21
sI266
I12
sI267
I12
sI268
I1
sI269
I4
sI270
I4
sI271
I4
sI272
I4
sI273
I8
sI274
I20
sI275
I10
sI276
I20
sI277
I56
sI278
I1
sI279
I10
sI280
I1
sI281
I1
sI282
I1
sI283
I2
sI284
I4
sI285
I13
sI286
I8
sI287
I9
sI288
I24
sI289
I12
sI290
I16
sI291
I24
sI292
I2
sI293
I4
sI294
I5
sI295
I14
sI296
I7
sI297
I13
sI298
I5
sI299
I7
sI300
I10
sI301
I2
sI302
I3
sI303
I27
sI304
I12
sI305
I2
sI306
I30
sI307
I9
sI308
I4
sI309
I6
sI310
I10
sI311
I9
sI312
I3
sI313
I5
sI314
I74
sI315
I14
sI316
I2
sI317
I4
sI318
I12
sI319
I5
sI320
I19
sI321
I61
sI322
I2
sI323
I2
sI324
I39
sI325
I12
sI326
I1
sI327
I5
sI328
I10
sI329
I47
sI330
I2
sI331
I3
sI332
I23
sI333
I13
sI334
I21
sI335
I14
sI336
I12
sI337
I2
sI338
I1
sI339
I13
sI340
I18
sI341
I10
sI342
I29
sI343
I22
sI344
I34
sI345
I9
sI346
I7
sI347
I1
sI348
I2
sI349
I2
sI350
I20
sI351
I48
sI352
I24
sI353
I11
sI354
I17
sI355
I30
sI356
I6
sI357
I83
sI358
I17
sI359
I5
sI360
I12
sI361
I2
sI362
I7
sI363
I34
sI364
I30
sI365
I22
sI366
I6
sI367
I1
sI368
I6
sI369
I3
sI370
I1
sI371
I25
sI372
I7
sI373
I24
sI374
I8
sI375
I31
sI376
I6
sI377
I7
sI378
I1
sI379
I24
sI380
I12
sI381
I2
sI382
I1
sI383
I13
sI384
I5
sI385
I38
sI386
I11
sI387
I20
sI388
I14
sI389
I12
sI390
I68
sI391
I1
sI392
I2
sI393
I3
sI394
I6
sI395
I2
sI396
I28
sI397
I17
sI398
I7
sI399
I2
sI400
I8
sI401
I20
sI402
I4
sI403
I15
sI404
I9
sI405
I23
sI406
I16
sI407
I9
sI408
I10
sI409
I1
sI410
I7
sI411
I1
sI412
I8
sI413
I3
sI414
I3
sI415
I1
sI416
I16
sI417
I1
sI418
I34
sI419
I2
sI420
I1
sI421
I20
sI422
I15
sI423
I2
sI424
I2
sI425
I6
sI426
I7
sI427
I2
sI428
I5
sI429
I35
sI430
I12
sI431
I3
sI432
I13
sI433
I3
sI434
I3
sI435
I17
sI436
I22
sI437
I13
sI438
I14
sI439
I3
sI440
I32
sI441
I20
sI442
I5
sI443
I15
sI444
I4
sI445
I5
sI446
I6
sI447
I11
sI448
I4
sI449
I2
sI450
I21
sI451
I15
sI452
I22
sI453
I35
sI454
I4
sI455
I8
sI456
I18
sI457
I6
sI458
I12
sI459
I29
sI460
I13
sI461
I3
sI462
I2
sI463
I23
sI464
I1
sI465
I37
sI466
I21
sI467
I2
sI468
I26
sI469
I8
sI470
I2
sI471
I26
sI472
I4
sI473
I21
sI474
I22
sI475
I27
sI476
I13
sI477
I3
sI478
I14
sI479
I1
sI480
I7
sI481
I10
sI482
I24
sI483
I7
sI484
I10
sI485
I1
sI486
I11
sI487
I5
sI488
I10
sI489
I12
sI490
I14
sI491
I5
sI492
I23
sI493
I12
sI494
I12
sI495
I39
sI496
I2
sI497
I2
sI498
I16
sI499
I22
sI500
I11
sI501
I7
sI502
I1
sI503
I5
sI504
I3
sI505
I17
sI506
I1
sI507
I6
sI508
I1
sI509
I45
sI510
I2
sI511
I2
sI512
I7
sI513
I2
sI514
I7
sI515
I3
sI516
I1
sI517
I7
sI518
I37
sI519
I64
sI520
I9
sI521
I26
sI522
I5
sI523
I61
sI524
I2
sI525
I1
sI526
I22
sI527
I5
sI528
I23
sI529
I11
sI530
I8
sI531
I2
sI532
I5
sI533
I4
sI534
I3
sI535
I5
sI536
I13
sI537
I10
sI538
I8
sI539
I8
sI540
I11
sI541
I2
sI542
I3
sI543
I8
sI544
I8
sI545
I3
sI546
I6
sI547
I6
sI548
I2
sI549
I2
sI550
I4
sI551
I6
sI552
I8
sI553
I10
sI554
I5
sI555
I2
sI556
I5
sI557
I3
sI558
I3
sI559
I4
sI560
I4
sI561
I13
sI562
I2
sI563
I2
sI564
I2
sI565
I3
sI566
I39
sI567
I9
sI568
I3
sI569
I1
sI570
I9
sI571
I1
sI572
I1
sI573
I1
sI574
I6
sI575
I2
sI576
I14
sI577
I12
sI578
I2
sI579
I2
sI580
I6
sI581
I4
sI582
I16
sI583
I18
sI584
I6
sI585
I1
sI586
I5
sI587
I10
sI588
I15
sI589
I1
sI590
I2
sI591
I5
sI592
I1
sI593
I2
sI594
I21
sI595
I21
sI596
I2
sI597
I32
sI598
I2
sI599
I17
sI600
I9
sI601
I4
sI602
I7
sI603
I3
sI604
I1
sI605
I1
sI606
I3
sI607
I5
sI608
I1
sI609
I2
sI610
I1
sI611
I1
sI612
I32
sI613
I7
sI614
I6
sI615
I1
sI616
I1
sI617
I4
sI618
I14
sI619
I27
sI620
I1
sI621
I16
sI622
I1
sI623
I5
sI624
I8
sI625
I28
sI626
I1
sI627
I1
sI628
I1
sI629
I8
sI630
I5
sI631
I15
sI632
I3
sI633
I6
sI634
I1
sI635
I21
sI636
I1
sI637
I16
sI638
I4
sI639
I4
sI640
I1
sI641
I2
sI642
I4
sI643
I3
sI644
I15
sI645
I3
sI646
I12
sI647
I2
sI648
I14
sI649
I7
sI650
I2
sI651
I24
sI652
I30
sI653
I35
sI654
I4
sI655
I3
sI656
I1
sI657
I17
sI658
I1
sI659
I1
sI660
I1
sI661
I4
sI662
I3
sI663
I5
sI664
I9
sI665
I10
sI666
I2
sI667
I12
sI668
I1
sI669
I5
sI670
I23
sI671
I1
sI672
I1
sI673
I6
sI674
I26
sI675
I17
sI676
I14
sI677
I2
sI678
I1
sI679
I2
sI680
I6
sI681
I2
sI682
I21
sI683
I21
sI684
I18
sI685
I1
sI686
I1
sI687
I12
sI688
I1
sI689
I7
sI690
I4
sI691
I3
sI692
I22
sI693
I30
sI694
I1
sI695
I11
sI696
I34
sI697
I11
sI698
I10
sI699
I4
sI700
I35
sI701
I3
sI702
I10
sI703
I12
sI704
I7
sI705
I3
sI706
I1
sI707
I9
sI708
I4
sI709
I3
sI710
I1
sI711
I1
sI712
I6
sI713
I2
sI714
I2
sI715
I4
sI716
I27
sI717
I14
sI718
I2
sI719
I8
sI720
I3
sI721
I3
sI722
I24
sI723
I10
sI724
I5
sI725
I1
sI726
I37
sI727
I4
sI728
I5
sI729
I1
sI730
I4
sI731
I3
sI732
I8
sI733
I1
sI734
I1
sI735
I5
sI736
I9
sI737
I1
sI738
I3
sI739
I1
sI740
I1
sI741
I4
sI742
I1
sI743
I6
sI744
I8
sI745
I2
sI746
I4
sI747
I2
sI748
I6
sI749
I2
sI750
I2
sI751
I18
sI752
I8
sI753
I2
sI754
I2
sI755
I2
sI756
I3
sI757
I15
sI758
I5
sI759
I2
sI760
I8
sI761
I2
sI762
I3
sI763
I2
sI764
I2
sI765
I2
sI766
I3
sI767
I2
sI768
I11
sI769
I10
sI770
I3
sI771
I5
sI772
I12
sI773
I7
sI774
I4
sI775
I20
sI776
I2
sI777
I8
sI778
I3
sI779
I14
sI780
I28
sI781
I3
sI782
I22
sI783
I3
sI784
I4
sI785
I5
sI786
I6
sI787
I12
sI788
I7
sI789
I4
sI790
I2
sI791
I4
sI792
I5
sI793
I2
sI794
I3
sI795
I8
sI796
I9
sI797
I3
sI798
I3
sI799
I1
sI800
I6
sI801
I4
sI802
I8
sI803
I7
sI804
I10
sI805
I9
sI806
I1
sI807
I3
sI808
I4
sI809
I10
sI810
I4
sI811
I18
sI812
I7
sI813
I4
sI814
I28
sI815
I2
sI816
I24
sI817
I4
sI818
I5
sI819
I5
sI820
I4
sI821
I9
sI822
I17
sI823
I5
sI824
I9
sI825
I4
sI826
I4
sI827
I3
sI828
I1
sI829
I3
sI830
I2
sI831
I1
sI832
I1
sI833
I1
sI834
I2
sI835
I10
sI836
I17
sI837
I3
sI838
I5
sI839
I2
sI840
I6
sI841
I7
sI842
I1
sI843
I4
sI844
I2
sI845
I1
sI846
I6
sI847
I8
sI848
I2
sI849
I3
sI850
I4
sI851
I29
sI852
I6
sI853
I2
sI854
I13
sI855
I12
sI856
I4
sI857
I10
sI858
I7
sI859
I4
sI860
I3
sI861
I11
sI862
I9
sI863
I10
sI864
I1
sI865
I1
sI866
I3
sI867
I14
sI868
I1
sI869
I3
sI870
I4
sI871
I3
sI872
I1
sI873
I1
sI874
I4
sI875
I3
sI876
I7
sI877
I6
sI878
I2
sI879
I9
sI880
I1
sI881
I5
sI882
I1
sI883
I1
sI884
I4
sI885
I1
sI886
I1
sI887
I9
sI888
I5
sI889
I1
sI890
I3
sI891
I4
sI892
I14
sI893
I23
sI894
I10
sI895
I11
sI896
I7
sI897
I1
sI898
I6
sI899
I12
sI900
I14
sI901
I1
sI902
I17
sI903
I4
sI904
I17
sI905
I1
sI906
I1
sI907
I1
sI908
I9
sI909
I2
sI910
I1
sI911
I1
sI912
I6
sI913
I1
sI914
I4
sI915
I1
sI916
I1
sI917
I11
sI918
I2
sI919
I22
sI920
I1
sI921
I4
sI922
I2
sI923
I1
sI924
I1
sI925
I12
sI926
I3
sI927
I7
sI928
I1
sI929
I1
sI930
I9
sI931
I2
sI932
I6
sI933
I2
sI934
I14
sI935
I5
sI936
I1
sI937
I3
sI938
I17
sI939
I1
sI940
I2
sI941
I12
sI942
I1
sI943
I20
sI944
I17
sI945
I12
sI946
I12
sI947
I2
sI948
I57
sI949
I2
sI950
I11
sI951
I2
sI952
I3
sI953
I2
sI954
I3
sI955
I2
sI956
I14
sI957
I12
sI958
I2
sI959
I5
sI960
I3
sI961
I3
sI962
I6
sI963
I8
sI964
I2
sI965
I2
sI966
I22
sI967
I20
sI968
I9
sI969
I3
sI970
I21
sI971
I8
sI972
I25
sI973
I6
sI974
I1
sI975
I1
sI976
I24
sI977
I16
sI978
I4
sI979
I1
sI980
I17
sI981
I4
sI982
I9
sI983
I19
sI984
I7
sI985
I13
sI986
I8
sI987
I13
sI988
I2
sI989
I7
sI990
I1
sI991
I10
sI992
I3
sI993
I1
sI994
I5
sI995
I4
sI996
I7
sI997
I1
sI998
I1
sI999
I1
sI1000
I5
sI1001
I14
sI1002
I15
sI1003
I5
sI1004
I11
sI1005
I12
sI1006
I8
sI1007
I13
sI1008
I10
sI1009
I2
sI1010
I8
sI1011
I2
sI1012
I3
sI1013
I3
sI1014
I1
sI1015
I1
sI1016
I3
sI1017
I2
sI1018
I5
sI1019
I1
sI1020
I5
sI1021
I2
sI1022
I1
sI1023
I1
sI1024
I9
sI1025
I3
sI1026
I8
sI1027
I5
sI1028
I1
sI1029
I3
sI1030
I2
sI1031
I14
sI1032
I5
sI1033
I10
sI1034
I9
sI1035
I4
sI1036
I2
sI1037
I1
sI1038
I6
sI1039
I4
sI1040
I22
sI1041
I11
sI1042
I1
sI1043
I2
sI1044
I5
sI1045
I4
sI1046
I5
sI1047
I3
sI1048
I10
sI1049
I6
sI1050
I3
sI1051
I3
sI1052
I10
sI1053
I1
sI1054
I5
sI1055
I13
sI1056
I7
sI1057
I1
sI1058
I6
sI1059
I2
sI1060
I6
sI1061
I3
sI1062
I6
sI1063
I4
sI1064
I2
sI1065
I12
sI1066
I4
sI1067
I6
sI1068
I7
sI1069
I4
sI1070
I6
sI1071
I22
sI1072
I22
sI1073
I2
sI1074
I17
sI1075
I2
sI1076
I2
sI1077
I2
sI1078
I1
sI1079
I15
sI1080
I5
sI1081
I1
sI1082
I2
sI1083
I16
sI1084
I2
sI1085
I10
sI1086
I2
sI1087
I4
sI1088
I2
sI1089
I10
sI1090
I7
sI1091
I2
sI1092
I2
sI1093
I11
sI1094
I2
sI1095
I9
sI1096
I2
sI1097
I3
sI1098
I9
sI1099
I3
sI1100
I11
sI1101
I7
sI1102
I2
sI1103
I10
sI1104
I2
sI1105
I2
sI1106
I2
sI1107
I2
sI1108
I5
sI1109
I2
sI1110
I3
sI1111
I7
sI1112
I6
sI1113
I2
sI1114
I2
sI1115
I6
sI1116
I13
sI1117
I2
sI1118
I9
sI1119
I4
sI1120
I2
sI1121
I2
sI1122
I19
sI1123
I4
sI1124
I6
sI1125
I2
sI1126
I6
sI1127
I5
sI1128
I1
sI1129
I1
sI1130
I3
sI1131
I3
sI1132
I1
sI1133
I3
sI1134
I2
sI1135
I9
sI1136
I2
sI1137
I5
sI1138
I3
sI1139
I6
sI1140
I4
sI1141
I3
sI1142
I5
sI1143
I4
sI1144
I2
sI1145
I2
sI1146
I12
sI1147
I16
sI1148
I5
sI1149
I1
sI1150
I1
sI1151
I4
sI1152
I1
sI1153
I3
sI1154
I4
sI1155
I2
sI1156
I11
sI1157
I14
sI1158
I1
sI1159
I1
sI1160
I4
sI1161
I4
sI1162
I5
sI1163
I17
sI1164
I1
sI1165
I3
sI1166
I19
sI1167
I1
sI1168
I1
sI1169
I1
sI1170
I2
sI1171
I13
sI1172
I3
sI1173
I3
sI1174
I1
sI1175
I3
sI1176
I1
sI1177
I7
sI1178
I1
sI1179
I2
sI1180
I5
sI1181
I2
sI1182
I4
sI1183
I2
sI1184
I8
sI1185
I3
sI1186
I25
sI1187
I10
sI1188
I5
sI1189
I2
sI1190
I3
sI1191
I2
sI1192
I4
sI1193
I2
sI1194
I4
sI1195
I1
sI1196
I3
sI1197
I7
sI1198
I1
sI1199
I9
sI1200
I6
sI1201
I4
sI1202
I5
sI1203
I4
sI1204
I8
sI1205
I4
sI1206
I3
sI1207
I15
sI1208
I3
sI1209
I4
sI1210
I4
sI1211
I1
sI1212
I2
sI1213
I8
sI1214
I1
sI1215
I2
sI1216
I5
sI1217
I15
sI1218
I6
sI1219
I3
sI1220
I8
sI1221
I4
sI1222
I3
sI1223
I3
sI1224
I4
sI1225
I2
sI1226
I7
sI1227
I8
sI1228
I10
sI1229
I5
sI1230
I2
sI1231
I3
sI1232
I2
sI1233
I2
sI1234
I2
sI1235
I6
sI1236
I12
sI1237
I4
sI1238
I2
sI1239
I4
sI1240
I5
sI1241
I4
sI1242
I4
sI1243
I9
sI1244
I2
sI1245
I2
sI1246
I5
sI1247
I5
sI1248
I2
sI1249
I6
sI1250
I2
sI1251
I6
sI1252
I2
sI1253
I7
sI1254
I11
sI1255
I10
sI1256
I11
sI1257
I2
sI1258
I2
sI1259
I2
sI1260
I2
sI1261
I1
sI1262
I6
sI1263
I2
sI1264
I15
sI1265
I13
sI1266
I2
sI1267
I2
sI1268
I2
sI1269
I1
sI1270
I1
sI1271
I1
sI1272
I1
sI1273
I5
sI1274
I1
sI1275
I1
sI1276
I3
sI1277
I3
sI1278
I1
sI1279
I2
sI1280
I13
sI1281
I1
sI1282
I8
sI1283
I9
sI1284
I4
sI1285
I6
sI1286
I11
sI1287
I1
sI1288
I3
sI1289
I1
sI1290
I1
sI1291
I2
sI1292
I1
sI1293
I3
sI1294
I3
sI1295
I1
sI1296
I1
sI1297
I4
sI1298
I1
sI1299
I3
sI1300
I1
sI1301
I3
sI1302
I5
sI1303
I2
sI1304
I1
sI1305
I1
sI1306
I5
sI1307
I6
sI1308
I6
sI1309
I2
sI1310
I3
sI1311
I5
sI1312
I1
sI1313
I3
sI1314
I1
sI1315
I3
sI1316
I4
sI1317
I5
sI1318
I13
sI1319
I2
sI1320
I3
sI1321
I1
sI1322
I1
sI1323
I8
sI1324
I5
sI1325
I6
sI1326
I4
sI1327
I5
sI1328
I3
sI1329
I4
sI1330
I8
sI1331
I2
sI1332
I8
sI1333
I10
sI1334
I3
sI1335
I15
sI1336
I3
sI1337
I3
sI1338
I2
sI1339
I14
sI1340
I5
sI1341
I7
sI1342
I2
sI1343
I5
sI1344
I2
sI1345
I3
sI1346
I2
sI1347
I2
sI1348
I3
sI1349
I2
sI1350
I1
sI1351
I1
sI1352
I1
sI1353
I1
sI1354
I10
sI1355
I1
sI1356
I5
sI1357
I6
sI1358
I14
sI1359
I1
sI1360
I2
sI1361
I1
sI1362
I1
sI1363
I1
sI1364
I2
sI1365
I5
sI1366
I1
sI1367
I1
sI1368
I10
sI1369
I10
sI1370
I10
sI1371
I7
sI1372
I3
sI1373
I5
sI1374
I6
sI1375
I3
sI1376
I2
sI1377
I3
sI1378
I1
sI1379
I1
sI1380
I2
sI1381
I3
sI1382
I1
sI1383
I1
sI1384
I1
sI1385
I1
sI1386
I2
sI1387
I5
sI1388
I1
sI1389
I5
sI1390
I1
sI1391
I7
sI1392
I6
sI1393
I1
sI1394
I7
sI1395
I4
sI1396
I2
sI1397
I17
sI1398
I2
sI1399
I4
sI1400
I1
sI1401
I6
sI1402
I2
sI1403
I6
sI1404
I1
sI1405
I6
sI1406
I6
sI1407
I5
sI1408
I1
sI1409
I1
sI1410
I1
sI1411
I1
sI1412
I1
sI1413
I1
sI1414
I1
sI1415
I8
sI1416
I1
sI1417
I1
sI1418
I1
sI1419
I2
sI1420
I7
sI1421
I1
sI1422
I1
sI1423
I1
sI1424
I2
sI1425
I1
sI1426
I5
sI1427
I1
sI1428
I1
sI1429
I5
sI1430
I7
sI1431
I1
sI1432
I4
sI1433
I1
sI1434
I1
sI1435
I1
sI1436
I1
sI1437
I3
sI1438
I1
sI1439
I12
sI1440
I19
sI1441
I1
sI1442
I12
sI1443
I3
sI1444
I1
sI1445
I14
sI1446
I7
sI1447
I3
sI1448
I1
sI1449
I2
sI1450
I1
sI1451
I3
sI1452
I2
sI1453
I1
sI1454
I1
sI1455
I6
sI1456
I2
sI1457
I4
sI1458
I2
sI1459
I1
sI1460
I1
sI1461
I3
sI1462
I3
sI1463
I1
sI1464
I1
sI1465
I2
sI1466
I1
sI1467
I7
sI1468
I1
sI1469
I1
sI1470
I1
sI1471
I2
sI1472
I1
sI1473
I5
sI1474
I19
sI1475
I4
sI1476
I1
sI1477
I1
sI1478
I2
sI1479
I3
sI1480
I8
sI1481
I4
sI1482
I3
sI1483
I2
sI1484
I2
sI1485
I2
sI1486
I2
sI1487
I2
sI1488
I3
sI1489
I2
sI1490
I3
sI1491
I2
sI1492
I2
sI1493
I3
sI1494
I8
sI1495
I4
sI1496
I6
sI1497
I2
sI1498
I20
sI1499
I4
sI1500
I2
sI1501
I2
sI1502
I4
sI1503
I5
sI1504
I1
sI1505
I2
sI1506
I1
sI1507
I3
sI1508
I4
sI1509
I7
sI1510
I1
sI1511
I1
sI1512
I2
sI1513
I1
sI1514
I9
sI1515
I4
sI1516
I4
sI1517
I7
sI1518
I1
sI1519
I2
sI1520
I2
sI1521
I2
sI1522
I1
sI1523
I5
sI1524
I3
sI1525
I1
sI1526
I1
sI1527
I4
sI1528
I2
sI1529
I7
sI1530
I1
sI1531
I11
sI1532
I8
sI1533
I6
sI1534
I5
sI1535
I7
sI1536
I5
sI1537
I6
sI1538
I30
sI1539
I4
sI1540
I4
sI1541
I4
sI1542
I4
sI1543
I5
sI1544
I4
sI1545
I4
sI1546
I4
sI1547
I4
sI1548
I5
sI1549
I6
sI1550
I10
sI1551
I4
sI1552
I4
sI1553
I4
sI1554
I13
sI1555
I15
sI1556
I2
sI1557
I1
sI1558
I6
sI1559
I6
sI1560
I1
sI1561
I2
sI1562
I1
sI1563
I2
sI1564
I2
sI1565
I7
sI1566
I3
sI1567
I3
sI1568
I1
sI1569
I3
sI1570
I1
sI1571
I4
sI1572
I1
sI1573
I1
sI1574
I1
sI1575
I1
sI1576
I2
sI1577
I1
sI1578
I8
sI1579
I10
sI1580
I6
sI1581
I3
sI1582
I1
sI1583
I1
sI1584
I5
sI1585
I1
sI1586
I1
sI1587
I1
sI1588
I1
sI1589
I1
sI1590
I2
sI1591
I1
sI1592
I2
sI1593
I2
sI1594
I5
sI1595
I1
sI1596
I5
sI1597
I4
sI1598
I15
sI1599
I1
sI1600
I1
sI1601
I2
sI1602
I3
sI1603
I1
sI1604
I1
sI1605
I1
sI1606
I3
sI1607
I1
sI1608
I1
sI1609
I2
sI1610
I2
sI1611
I8
sI1612
I3
sI1613
I1
sI1614
I1
sI1615
I1
sI1616
I1
sI1617
I1
sI1618
I5
sI1619
I1
sI1620
I5
sI1621
I5
sI1622
I2
sI1623
I1
sI1624
I2
sI1625
I4
sI1626
I1
sI1627
I1
sI1628
I3
sI1629
I2
sI1630
I1
sI1631
I1
sI1632
I8
sI1633
I2
sI1634
I1
sI1635
I3
sI1636
I3
sI1637
I4
sI1638
I2
sI1639
I4
sI1640
I2
sI1641
I2
sI1642
I2
sI1643
I16
sI1644
I3
sI1645
I4
sI1646
I17
sI1647
I5
sI1648
I1
sI1649
I4
sI1650
I11
sI1651
I1
sI1652
I1
sI1653
I3
sI1654
I3
sI1655
I9
sI1656
I3
sI1657
I3
sI1658
I4
sI1659
I2
sI1660
I5
sI1661
I9
sI1662
I2
sI1663
I1
sI1664
I3
sI1665
I1
sI1666
I1
sI1667
I2
sI1668
I1
sI1669
I1
sI1670
I1
sI1671
I10
sI1672
I1
sI1673
I2
sI1674
I2
sI1675
I3
sI1676
I1
sI1677
I1
sI1678
I1
sI1679
I2
sI1680
I10
sI1681
I1
sI1682
I1
sI1683
I2
sI1684
I2
sI1685
I2
sI1686
I5
sI1687
I1
sI1688
I5
sI1689
I8
sI1690
I3
sI1691
I7
sI1692
I7
sI1693
I5
sI1694
I3
sI1695
I3
sI1696
I1
sI1697
I4
sI1698
I7
sI1699
I5
sI1700
I3
sI1701
I9
sI1702
I3
sI1703
I3
sI1704
I10
sI1705
I5
sI1706
I4
sI1707
I3
sI1708
I6
sI1709
I2
sI1710
I2
sI1711
I2
sI1712
I4
sI1713
I2
sI1714
I1
sI1715
I3
sI1716
I2
sI1717
I11
sI1718
I4
sI1719
I2
sI1720
I5
sI1721
I6
sI1722
I5
sI1723
I7
sI1724
I10
sI1725
I3
sI1726
I7
sI1727
I1
sI1728
I13
sI1729
I2
sI1730
I1
sI1731
I2
sI1732
I1
sI1733
I1
sI1734
I5
sI1735
I1
sI1736
I1
sI1737
I4
sI1738
I7
sI1739
I2
sI1740
I1
sI1741
I2
sI1742
I7
sI1743
I9
sI1744
I4
sI1745
I5
sI1746
I4
sI1747
I1
sI1748
I3
sI1749
I7
sI1750
I2
sI1751
I4
sI1752
I2
sI1753
I2
sI1754
I15
sI1755
I2
sI1756
I2
sI1757
I1
sI1758
I1
sI1759
I2
sI1760
I1
sI1761
I8
sI1762
I5
sI1763
I3
sI1764
I2
sI1765
I1
sI1766
I3
sI1767
I5
sI1768
I1
sI1769
I7
sI1770
I1
sI1771
I3
sI1772
I7
sI1773
I6
sI1774
I1
sI1775
I2
sI1776
I2
sI1777
I2
sI1778
I6
sI1779
I2
sI1780
I9
sI1781
I2
sI1782
I4
sI1783
I3
sI1784
I1
sI1785
I2
sI1786
I2
sI1787
I2
sI1788
I5
sI1789
I3
sI1790
I3
sI1791
I1
sI1792
I4
sI1793
I4
sI1794
I1
sI1795
I2
sI1796
I2
sI1797
I1
sI1798
I1
sI1799
I2
sI1800
I6
sI1801
I1
sI1802
I1
sI1803
I1
sI1804
I8
sI1805
I6
sI1806
I1
sI1807
I1
sI1808
I3
sI1809
I2
sI1810
I1
sI1811
I1
sI1812
I1
sI1813
I1
sI1814
I5
sI1815
I1
sI1816
I2
sI1817
I1
sI1818
I1
sI1819
I1
sI1820
I1
sI1821
I1
sI1822
I3
sI1823
I1
sI1824
I9
sI1825
I6
sI1826
I1
sI1827
I3
sI1828
I1
sI1829
I2
sI1830
I1
sI1831
I3
sI1832
I4
sI1833
I14
sI1834
I1
sI1835
I3
sI1836
I4
sI1837
I1
sI1838
I1
sI1839
I1
sI1840
I1
sI1841
I1
sI1842
I3
sI1843
I3
sI1844
I2
sI1845
I3
sI1846
I3
sI1847
I4
sI1848
I2
sI1849
I1
sI1850
I1
sI1851
I2
sI1852
I1
sI1853
I2
sI1854
I1
sI1855
I6
sI1856
I1
sI1857
I1
sI1858
I2
sI1859
I1
sI1860
I2
sI1861
I5
sI1862
I4
sI1863
I1
sI1864
I3
sI1865
I3
sI1866
I5
sI1867
I2
sI1868
I1
sI1869
I1
sI1870
I4
sI1871
I1
sI1872
I2
sI1873
I4
sI1874
I4
sI1875
I1
sI1876
I2
sI1877
I2
sI1878
I1
sI1879
I4
sI1880
I2
sI1881
I2
sI1882
I3
sI1883
I2
sI1884
I9
sI1885
I1
sI1886
I1
sI1887
I3
sI1888
I5
sI1889
I1
sI1890
I5
sI1891
I3
sI1892
I2
sI1893
I2
sI1894
I2
sI1895
I3
sI1896
I12
sI1897
I2
sI1898
I4
sI1899
I2
sI1900
I5
sI1901
I2
sI1902
I7
sI1903
I2
sI1904
I2
sI1905
I2
sI1906
I2
sI1907
I6
sI1908
I2
sI1909
I3
sI1910
I3
sI1911
I2
sI1912
I6
sI1913
I2
sI1914
I2
sI1915
I13
sI1916
I6
sI1917
I4
sI1918
I5
sI1919
I2
sI1920
I2
sI1921
I8
sI1922
I3
sI1923
I1
sI1924
I10
sI1925
I1
sI1926
I1
sI1927
I2
sI1928
I5
sI1929
I1
sI1930
I1
sI1931
I1
sI1932
I1
sI1933
I1
sI1934
I1
sI1935
I1
sI1936
I1
sI1937
I2
sI1938
I1
sI1939
I1
sI1940
I1
sI1941
I3
sI1942
I1
sI1943
I2
sI1944
I1
sI1945
I1
sI1946
I1
sI1947
I3
sI1948
I4
sI1949
I5
sI1950
I1
sI1951
I1
sI1952
I9
sI1953
I2
sI1954
I1
sI1955
I4
sI1956
I1
sI1957
I1
sI1958
I1
sI1959
I2
sI1960
I1
sI1961
I11
sI1962
I1
sI1963
I2
sI1964
I1
sI1965
I8
sI1966
I3
sI1967
I1
sI1968
I3
sI1969
I5
sI1970
I3
sI1971
I1
sI1972
I9
sI1973
I1
sI1974
I1
sI1975
I2
sI1976
I4
sI1977
I3
sI1978
I1
sI1979
I4
sI1980
I1
sI1981
I4
sI1982
I4
sI1983
I8
sI1984
I2
sI1985
I3
sI1986
I4
sI1987
I1
sI1988
I10
sI1989
I1
sI1990
I6
sI1991
I3
sI1992
I1
sI1993
I2
sI1994
I1
sI1995
I2
sI1996
I2
sI1997
I4
sI1998
I4
sI1999
I7
sI2000
I6
sI2001
I1
sI2002
I5
sI2003
I4
sI2004
I7
sI2005
I5
sI2006
I5
sI2007
I1
sI2008
I2
sI2009
I8
sI2010
I4
sI2011
I4
sI2012
I4
sI2013
I4
sI2014
I1
sI2015
I5
sI2016
I6
sI2017
I5
sI2018
I1
sI2019
I1
sI2020
I1
sI2021
I1
sI2022
I5
sI2023
I2
sI2024
I1
sI2025
I1
sI2026
I4
sI2027
I2
sI2028
I1
sI2029
I3
sI2030
I1
sI2031
I3
sI2032
I1
sI2033
I3
sI2034
I9
sI2035
I2
sI2036
I1
sI2037
I2
sI2038
I1
sI2039
I3
sI2040
I6
sI2041
I7
sI2042
I3
sI2043
I2
sI2044
I4
sI2045
I4
sI2046
I3
sI2047
I3
sI2048
I2
sI2049
I1
sI2050
I1
sI2051
I1
sI2052
I1
sI2053
I1
sI2054
I4
sI2055
I8
sI2056
I2
sI2057
I1
sI2058
I1
sI2059
I1
sI2060
I3
sI2061
I1
sI2062
I1
sI2063
I2
sI2064
I2
sI2065
I5
sI2066
I2
sI2067
I4
sI2068
I3
sI2069
I5
sI2070
I1
sI2071
I5
sI2072
I1
sI2073
I1
sI2074
I1
sI2075
I1
sI2076
I1
sI2077
I2
sI2078
I1
sI2079
I1
sI2080
I3
sI2081
I1
sI2082
I1
sI2083
I1
sI2084
I1
sI2085
I1
sI2086
I1
sI2087
I4
sI2088
I2
sI2089
I1
sI2090
I1
sI2091
I2
sI2092
I1
sI2093
I1
sI2094
I3
sI2095
I5
sI2096
I2
sI2097
I1
sI2098
I1
sI2099
I3
sI2100
I1
sI2101
I1
sI2102
I3
sI2103
I1
sI2104
I2
sI2105
I1
sI2106
I1
sI2107
I2
sI2108
I1
sI2109
I3
sI2110
I3
sI2111
I1
sI2112
I3
sI2113
I1
sI2114
I3
sI2115
I1
sI2116
I2
sI2117
I1
sI2118
I1
sI2119
I4
sI2120
I4
sI2121
I4
sI2122
I1
sI2123
I5
sI2124
I1
sI2125
I1
sI2126
I1
sI2127
I6
sI2128
I4
sI2129
I1
sI2130
I3
sI2131
I1
sI2132
I1
sI2133
I1
sI2134
I2
sI2135
I1
sI2136
I1
sI2137
I3
sI2138
I10
sI2139
I3
sI2140
I1
sI2141
I3
sI2142
I2
sI2143
I1
sI2144
I1
sI2145
I1
sI2146
I1
sI2147
I1
sI2148
I6
sI2149
I4
sI2150
I4
sI2151
I1
sI2152
I7
sI2153
I1
sI2154
I1
sI2155
I2
sI2156
I1
sI2157
I1
sI2158
I1
sI2159
I1
sI2160
I1
sI2161
I1
sI2162
I1
sI2163
I1
sI2164
I1
sI2165
I1
sI2166
I1
sI2167
I1
sI2168
I1
sI2169
I2
sI2170
I4
sI2171
I3
sI2172
I1
sI2173
I2
sI2174
I1
sI2175
I3
sI2176
I3
sI2177
I1
sI2178
I3
sI2179
I3
sI2180
I1
sI2181
I2
sI2182
I2
sI2183
I1
sI2184
I1
sI2185
I6
sI2186
I1
sI2187
I1
sI2188
I2
sI2189
I3
sI2190
I4
sI2191
I1
sI2192
I4
sI2193
I1
sI2194
I1
sI2195
I1
sI2196
I1
sI2197
I1
sI2198
I1
sI2199
I5
sI2200
I3
sI2201
I8
sI2202
I1
sI2203
I2
sI2204
I1
sI2205
I3
sI2206
I4
sI2207
I1
sI2208
I2
sI2209
I3
sI2210
I1
sI2211
I1
sI2212
I1
sI2213
I1
sI2214
I2
sI2215
I2
sI2216
I3
sI2217
I2
sI2218
I1
sI2219
I3
sI2220
I3
sI2221
I2
sI2222
I3
sI2223
I1
sI2224
I4
sI2225
I5
sI2226
I6
sI2227
I4
sI2228
I5
sI2229
I7
sI2230
I4
sI2231
I3
sI2232
I1
sI2233
I1
sI2234
I1
sI2235
I1
sI2236
I2
sI2237
I1
sI2238
I1
sI2239
I5
sI2240
I1
sI2241
I1
sI2242
I1
sI2243
I1
sI2244
I5
sI2245
I1
sI2246
I1
sI2247
I1
sI2248
I3
sI2249
I1
sI2250
I1
sI2251
I1
sI2252
I1
sI2253
I1
sI2254
I1
sI2255
I1
sI2256
I1
sI2257
I1
sI2258
I1
sI2259
I1
sI2260
I2
sI2261
I1
sI2262
I2
sI2263
I6
sI2264
I1
sI2265
I1
sI2266
I1
sI2267
I1
sI2268
I2
sI2269
I1
sI2270
I1
sI2271
I6
sI2272
I1
sI2273
I2
sI2274
I2
sI2275
I2
sI2276
I1
sI2277
I1
sI2278
I4
sI2279
I1
sI2280
I1
sI2281
I2
sI2282
I9
sI2283
I5
sI2284
I1
sI2285
I14
sI2286
I3
sI2287
I2
sI2288
I3
sI2289
I1
sI2290
I1
sI2291
I1
sI2292
I1
sI2293
I1
sI2294
I1
sI2295
I1
sI2296
I1
sI2297
I1
sI2298
I4
sI2299
I2
sI2300
I5
sI2301
I1
sI2302
I1
sI2303
I2
sI2304
I1
sI2305
I1
sI2306
I1
sI2307
I2
sI2308
I2
sI2309
I1
sI2310
I1
sI2311
I1
sI2312
I2
sI2313
I1
sI2314
I4
sI2315
I1
sI2316
I1
sI2317
I1
sI2318
I1
sI2319
I2
sI2320
I2
sI2321
I3
sI2322
I2
sI2323
I4
sI2324
I2
sI2325
I2
sI2326
I2
sI2327
I3
sI2328
I3
sI2329
I2
sI2330
I2
sI2331
I4
sI2332
I2
sI2333
I7
sI2334
I2
sI2335
I4
sI2336
I6
sI2337
I2
sI2338
I2
sI2339
I2
sI2340
I3
sI2341
I2
sI2342
I1
sI2343
I1
sI2344
I1
sI2345
I1
sI2346
I6
sI2347
I1
sI2348
I2
sI2349
I1
sI2350
I3
sI2351
I1
sI2352
I5
sI2353
I8
sI2354
I2
sI2355
I6
sI2356
I2
sI2357
I2
sI2358
I2
sI2359
I1
sI2360
I6
sI2361
I1
sI2362
I1
sI2363
I2
sI2364
I1
sI2365
I9
sI2366
I1
sI2367
I4
sI2368
I1
sI2369
I1
sI2370
I1
sI2371
I1
sI2372
I1
sI2373
I4
sI2374
I1
sI2375
I3
sI2376
I1
sI2377
I1
sI2378
I2
sI2379
I3
sI2380
I2
sI2381
I2
sI2382
I2
sI2383
I4
sI2384
I2
sI2385
I3
sI2386
I2
sI2387
I6
sI2388
I2
sI2389
I2
sI2390
I3
sI2391
I1
sI2392
I3
sI2393
I2
sI2394
I3
sI2395
I1
sI2396
I1
sI2397
I1
sI2398
I2
sI2399
I2
sI2400
I1
sI2401
I6
sI2402
I1
sI2403
I1
sI2404
I1
sI2405
I3
sI2406
I3
sI2407
I1
sI2408
I1
sI2409
I1
sI2410
I3
sI2411
I1
sI2412
I1
sI2413
I5
sI2414
I2
sI2415
I1
sI2416
I5
sI2417
I6
sI2418
I1
sI2419
I2
sI2420
I1
sI2421
I1
sI2422
I1
sI2423
I3
sI2424
I2
sI2425
I1
sI2426
I7
sI2427
I1
sI2428
I4
sI2429
I1
sI2430
I1
sI2431
I2
sI2432
I3
sI2433
I9
sI2434
I2
sI2435
I5
sI2436
I2
sI2437
I1
sI2438
I2
sI2439
I1
sI2440
I1
sI2441
I2
sI2442
I2
sI2443
I1
sI2444
I2
sI2445
I5
sI2446
I1
sI2447
I4
sI2448
I1
sI2449
I1
sI2450
I3
sI2451
I1
sI2452
I1
sI2453
I1
sI2454
I1
sI2455
I1
sI2456
I8
sI2457
I1
sI2458
I2
sI2459
I2
sI2460
I2
sI2461
I4
sI2462
I2
sI2463
I2
sI2464
I3
sI2465
I2
sI2466
I1
sI2467
I1
sI2468
I1
sI2469
I1
sI2470
I1
sI2471
I1
sI2472
I1
sI2473
I2
sI2474
I1
sI2475
I1
sI2476
I1
sI2477
I1
sI2478
I3
sI2479
I1
sI2480
I2
sI2481
I1
sI2482
I5
sI2483
I2
sI2484
I1
sI2485
I1
sI2486
I1
sI2487
I1
sI2488
I2
sI2489
I1
sI2490
I2
sI2491
I1
sI2492
I2
sI2493
I1
sI2494
I1
sI2495
I1
sI2496
I1
sI2497
I2
sI2498
I1
sI2499
I1
sI2500
I1
sI2501
I1
sI2502
I1
sI2503
I1
sI2504
I3
sI2505
I3
sI2506
I2
sI2507
I2
sI2508
I2
sI2509
I3
sI2510
I2
sI2511
I1
sI2512
I2
sI2513
I1
sI2514
I1
sI2515
I2
sI2516
I4
sI2517
I1
sI2518
I2
sI2519
I1
sI2520
I1
sI2521
I1
sI2522
I2
sI2523
I2
sI2524
I1
sI2525
I3
sI2526
I1
sI2527
I2
sI2528
I2
sI2529
I2
sI2530
I2
sI2531
I1
sI2532
I1
sI2533
I6
sI2534
I4
sI2535
I2
sI2536
I2
sI2537
I3
sI2538
I2
sI2539
I1
sI2540
I1
sI2541
I1
sI2542
I1
sI2543
I1
sI2544
I9
sI2545
I1
sI2546
I2
sI2547
I1
sI2548
I1
sI2549
I1
sI2550
I2
sI2551
I1
sI2552
I4
sI2553
I2
sI2554
I3
sI2555
I2
sI2556
I2
sI2557
I2
sI2558
I1
sI2559
I1
sI2560
I1
sI2561
I1
sI2562
I2
sI2563
I1
sI2564
I1
sI2565
I1
sI2566
I2
sI2567
I1
sI2568
I1
sI2569
I2
sI2570
I1
sI2571
I2
sI2572
I2
sI2573
I1
sI2574
I2
sI2575
I2
sI2576
I3
sI2577
I2
sI2578
I9
sI2579
I1
sI2580
I2
sI2581
I2
sI2582
I2
sI2583
I3
sI2584
I1
sI2585
I1
sI2586
I1
sI2587
I2
sI2588
I1
sI2589
I1
sI2590
I1
sI2591
I1
sI2592
I1
sI2593
I2
sI2594
I1
sI2595
I1
sI2596
I1
sI2597
I2
sI2598
I1
sI2599
I2
sI2600
I1
sI2601
I1
sI2602
I4
sI2603
I1
sI2604
I3
sI2605
I1
sI2606
I1
sI2607
I2
sI2608
I2
sI2609
I1
sI2610
I1
sI2611
I1
sI2612
I3
sI2613
I4
sI2614
I1
sI2615
I2
sI2616
I2
sI2617
I1
sI2618
I2
sI2619
I2
sI2620
I7
sI2621
I1
sI2622
I1
sI2623
I1
sI2624
I3
sI2625
I3
sI2626
I2
sI2627
I2
sI2628
I2
sI2629
I2
sI2630
I1
sI2631
I1
sI2632
I1
sI2633
I3
sI2634
I5
sI2635
I1
sI2636
I1
sI2637
I1
sI2638
I1
sI2639
I1
sI2640
I1
sI2641
I1
sI2642
I1
sI2643
I2
sI2644
I2
sI2645
I1
sI2646
I1
sI2647
I1
sI2648
I1
sI2649
I1
sI2650
I1
sI2651
I1
sI2652
I2
sI2653
I3
sI2654
I1
sI2655
I1
sI2656
I2
sI2657
I2
sI2658
I2
sI2659
I1
sI2660
I1
sI2661
I1
sI2662
I1
sI2663
I4
sI2664
I1
sI2665
I3
sI2666
I1
sI2667
I1
sI2668
I1
sI2669
I1
sI2670
I2
sI2671
I1
sI2672
I1
sI2673
I2
sI2674
I1
sI2675
I2
sI2676
I3
sI2677
I5
sI2678
I2
sI2679
I5
sI2680
I2
sI2681
I1
sI2682
I1
sI2683
I1
sI2684
I1
sI2685
I1
sI2686
I1
sI2687
I2
sI2688
I2
sI2689
I2
sI2690
I2
sI2691
I1
sI2692
I2
sI2693
I1
sI2694
I1
sI2695
I2
sI2696
I2
sI2697
I1
sI2698
I3
sI2699
I1
sI2700
I1
sI2701
I3
sI2702
I7
sI2703
I6
sI2704
I3
sI2705
I2
sI2706
I3
sI2707
I1
sI2708
I1
sI2709
I1
sI2710
I4
sI2711
I2
sI2712
I5
sI2713
I1
sI2714
I1
sI2715
I1
sI2716
I2
sI2717
I2
sI2718
I1
sI2719
I3
sI2720
I1
sI2721
I1
sI2722
I1
sI2723
I2
sI2724
I1
sI2725
I1
sI2726
I2
sI2727
I1
sI2728
I3
sI2729
I1
sI2730
I1
sI2731
I1
sI2732
I1
sI2733
I1
sI2734
I2
sI2735
I2
sI2736
I2
sI2737
I2
sI2738
I2
sI2739
I2
sI2740
I2
sI2741
I2
sI2742
I2
sI2743
I2
sI2744
I3
sI2745
I2
sI2746
I2
sI2747
I2
sI2748
I2
sI2749
I2
sI2750
I2
sI2751
I1
sI2752
I1
sI2753
I1
sI2754
I1
sI2755
I2
sI2756
I2
sI2757
I1
sI2758
I1
sI2759
I3
sI2760
I3
sI2761
I1
sI2762
I1
sI2763
I1
sI2764
I2
sI2765
I1
sI2766
I1
sI2767
I1
sI2768
I1
sI2769
I1
sI2770
I1
sI2771
I2
sI2772
I1
sI2773
I1
sI2774
I1
sI2775
I1
sI2776
I2
sI2777
I1
sI2778
I1
sI2779
I1
sI2780
I2
sI2781
I2
sI2782
I2
sI2783
I3
sI2784
I7
sI2785
I3
sI2786
I2
sI2787
I2
sI2788
I2
sI2789
I2
sI2790
I2
sI2791
I2
sI2792
I3
sI2793
I2
sI2794
I2
sI2795
I2
sI2796
I1
sI2797
I1
sI2798
I3
sI2799
I3
sI2800
I1
sI2801
I1
sI2802
I1
sI2803
I2
sI2804
I1
sI2805
I2
sI2806
I2
sI2807
I2
sI2808
I2
sI2809
I2
sI2810
I1
sI2811
I3
sI2812
I5
sI2813
I2
sI2814
I1
sI2815
I1
sI2816
I2
sI2817
I2
sI2818
I2
sI2819
I2
sI2820
I1
sI2821
I1
sI2822
I1
sI2823
I2
sI2824
I1
sI2825
I2
sI2826
I1
sI2827
I1
sI2828
I2
sI2829
I1
sI2830
I2
sI2831
I2
sI2832
I1
sI2833
I4
sI2834
I1
sI2835
I4
sI2836
I1
sI2837
I2
sI2838
I1
sI2839
I1
sI2840
I1
sI2841
I2
sI2842
I1
sI2843
I1
sI2844
I1
sI2845
I1
sI2846
I1
sI2847
I1
sI2848
I1
sI2849
I1
sI2850
I1
sI2851
I3
sI2852
I1
sI2853
I1
sI2854
I1
sI2855
I1
sI2856
I1
sI2857
I2
sI2858
I1
sI2859
I2
sI2860
I1
sI2861
I1
sI2862
I1
sI2863
I1
sI2864
I1
sI2865
I1
sI2866
I3
sI2867
I2
sI2868
I2
sI2869
I1
sI2870
I1
sI2871
I1
sI2872
I1
sI2873
I1
sI2874
I1
sI2875
I2
sI2876
I1
sI2877
I1
sI2878
I1
sI2879
I2
sI2880
I1
sI2881
I1
sI2882
I1
sI2883
I2
sI2884
I1
sI2885
I1
sI2886
I1
sI2887
I1
sI2888
I1
sI2889
I2
sI2890
I3
sI2891
I1
sI2892
I1
sI2893
I3
sI2894
I1
sI2895
I1
sI2896
I1
sI2897
I2
sI2898
I1
sI2899
I2
sI2900
I2
sI2901
I1
sI2902
I1
sI2903
I1
sI2904
I1
sI2905
I1
sI2906
I1
sI2907
I2
sI2908
I1
sI2909
I3
sI2910
I3
sI2911
I3
sI2912
I4
sI2913
I4
sI2914
I1
sI2915
I1
sI2916
I3
sI2917
I2
sI2918
I1
sI2919
I1
sI2920
I2
sI2921
I1
sI2922
I1
sI2923
I1
sI2924
I1
sI2925
I1
sI2926
I1
sI2927
I1
sI2928
I1
sI2929
I1
sI2930
I1
sI2931
I3
sI2932
I1
sI2933
I2
sI2934
I2
sI2935
I1
sI2936
I1
sI2937
I2
sI2938
I1
sI2939
I3
sI2940
I1
sI2941
I1
sI2942
I1
sI2943
I2
sI2944
I2
sI2945
I1
sI2946
I1
sI2947
I1
sI2948
I1
sI2949
I1
sI2950
I2
sI2951
I1
sI2952
I2
sI2953
I1
sI2954
I1
sI2955
I2
sI2956
I2
sI2957
I1
sI2958
I1
sI2959
I1
sI2960
I1
sI2961
I2
sI2962
I1
sI2963
I1
sI2964
I3
sI2965
I2
sI2966
I1
sI2967
I3
sI2968
I2
sI2969
I1
sI2970
I1
sI2971
I1
sI2972
I1
sI2973
I1
sI2974
I2
sI2975
I1
sI2976
I1
sI2977
I1
sI2978
I1
sI2979
I1
sI2980
I1
sI2981
I1
sI2982
I1
sI2983
I3
sI2984
I1
sI2985
I1
sI2986
I2
sI2987
I2
sI2988
I2
sI2989
I2
sI2990
I2
sI2991
I2
sI2992
I3
sI2993
I4
sI2994
I2
sI2995
I1
sI2996
I1
sI2997
I2
sI2998
I1
sI2999
I1
sI3000
I1
sI3001
I1
sI3002
I1
sI3003
I1
sI3004
I1
sI3005
I1
sI3006
I5
sI3007
I1
sI3008
I1
sI3009
I1
sI3010
I1
sI3011
I1
sI3012
I1
sI3013
I1
sI3014
I2
sI3015
I1
sI3016
I1
sI3017
I1
sI3018
I2
sI3019
I1
sI3020
I1
sI3021
I1
sI3022
I1
sI3023
I1
sI3024
I1
sI3025
I2
sI3026
I2
sI3027
I1
sI3028
I2
sI3029
I1
sI3030
I1
sI3031
I1
sI3032
I1
sI3033
I1
sI3034
I1
sI3035
I1
sI3036
I1
sI3037
I1
sI3038
I1
sI3039
I1
sI3040
I1
sI3041
I3
sI3042
I1
sI3043
I2
sI3044
I1
sI3045
I1
sI3046
I1
sI3047
I1
sI3048
I1
sI3049
I1
sI3050
I1
sI3051
I1
sI3052
I2
sI3053
I1
sI3054
I1
sI3055
I1
sI3056
I1
sI3057
I1
sI3058
I1
sI3059
I1
sI3060
I1
sI3061
I1
sI3062
I1
sI3063
I1
sI3064
I1
sI3065
I1
sI3066
I1
sI3067
I1
sI3068
I1
sI3069
I1
sI3070
I1
sI3071
I1
sI3072
I2
sI3073
I1
sI3074
I1
sI3075
I1
sI3076
I3
sI3077
I1
sI3078
I1
sI3079
I1
sI3080
I1
sI3081
I1
sI3082
I1
sI3083
I3
sI3084
I1
sI3085
I1
sI3086
I1
sI3087
I1
sI3088
I1
sI3089
I1
sI3090
I1
sI3091
I1
sI3092
I2
sI3093
I1
sI3094
I1
sI3095
I1
sI3096
I1
sI3097
I1
sI3098
I1
sI3099
I1
sI3100
I3
sI3101
I1
sI3102
I2
sI3103
I1
sI3104
I1
sI3105
I1
sI3106
I1
sI3107
I1
sI3108
I1
sI3109
I1
sI3110
I1
sI3111
I1
sI3112
I1
sI3113
I2
sI3114
I1
sI3115
I1
sI3116
I1
sI3117
I1
sI3118
I1
sI3119
I1
sI3120
I2
sI3121
I2
sI3122
I1
sI3123
I1
sI3124
I1
sI3125
I1
sI3126
I1
sI3127
I1
sI3128
I1
sI3129
I1
sI3130
I1
sI3131
I2
sI3132
I1
sI3133
I1
sI3134
I1
sI3135
I2
sI3136
I1
sI3137
I1
sI3138
I1
sI3139
I1
sI3140
I1
sI3141
I1
sI3142
I1
sI3143
I1
sI3144
I1
sI3145
I1
sI3146
I1
sI3147
I1
sI3148
I1
sI3149
I2
sI3150
I2
sI3151
I1
sI3152
I1
sI3153
I1
sI3154
I1
sI3155
I1
sI3156
I1
sI3157
I1
sI3158
I1
sI3159
I3
sI3160
I1
sI3161
I1
sI3162
I1
sI3163
I1
sI3164
I1
sI3165
I2
sI3166
I4
sI3167
I1
sI3168
I3
sI3169
I1
sI3170
I1
sI3171
I1
sI3172
I1
sI3173
I1
sI3174
I1
sI3175
I1
sI3176
I1
sI3177
I1
sI3178
I2
sI3179
I1
sI3180
I1
sI3181
I1
sI3182
I1
sI3183
I1
sI3184
I1
sI3185
I1
sI3186
I1
sI3187
I1
sI3188
I1
sI3189
I2
sI3190
I1
sI3191
I1
sI3192
I2
sI3193
I1
sI3194
I1
sI3195
I3
sI3196
I3
sI3197
I1
sI3198
I3
sI3199
I1
sI3200
I2
sI3201
I1
sI3202
I1
sI3203
I1
sI3204
I1
sI3205
I1
sI3206
I1
sI3207
I1
sI3208
I1
sI3209
I1
sI3210
I1
sI3211
I1
sI3212
I1
sI3213
I1
sI3214
I1
sI3215
I1
sI3216
I1
sI3217
I1
sI3218
I1
sI3219
I1
sI3220
I1
sI3221
I1
sI3222
I1
sI3223
I1
sI3224
I1
sI3225
I1
sI3226
I1
sI3227
I1
sI3228
I1
sI3229
I1
sI3230
I1
sI3231
I2
sI3232
I1
sI3233
I2
sI3234
I1
sI3235
I1
sI3236
I1
sI3237
I1
sI3238
I1
sI3239
I1
sI3240
I1
sI3241
I2
sI3242
I2
sI3243
I1
sI3244
I1
sI3245
I1
sI3246
I1
sI3247
I1
sI3248
I1
sI3249
I1
sI3250
I1
sI3251
I1
sI3252
I1
sI3253
I1
sI3254
I1
sI3255
I3
sI3256
I1
sI3257
I2
sI3258
I1
sI3259
I1
sI3260
I1
sI3261
I1
sI3262
I1
sI3263
I2
sI3264
I1
sI3265
I1
sI3266
I1
sI3267
I1
sI3268
I2
sI3269
I1
sI3270
I1
sI3271
I1
sI3272
I2
sI3273
I1
sI3274
I1
sI3275
I1
sI3276
I1
sI3277
I4
sI3278
I2
sI3279
I1
sI3280
I1
sI3281
I1
sI3282
I1
sI3283
I1
sI3284
I2
sI3285
I1
sI3286
I1
sI3287
I2
sI3288
I1
sI3289
I1
sI3290
I1
sI3291
I1
sI3292
I1
sI3293
I1
sI3294
I1
sI3295
I1
sI3296
I1
sI3297
I1
sI3298
I1
sI3299
I1
sI3300
I1
sI3301
I2
sI3302
I1
sI3303
I1
sI3304
I2
sI3305
I1
sI3306
I1
sI3307
I1
sI3308
I1
sI3309
I1
sI3310
I1
sI3311
I1
sI3312
I1
sI3313
I1
sI3314
I1
sI3315
I1
sI3316
I1
sI3317
I1
sI3318
I1
sI3319
I1
sI3320
I1
sI3321
I1
sI3322
I1
sI3323
I1
sI3324
I1
sI3325
I1
sI3326
I1
sI3327
I1
sI3328
I1
sI3329
I1
sI3330
I1
sI3331
I1
sI3332
I1
sI3333
I2
sI3334
I1
sI3335
I1
sI3336
I2
sI3337
I1
sI3338
I1
sI3339
I1
sI3340
I1
sI3341
I1
sI3342
I1
sI3343
I1
sI3344
I1
sI3345
I1
sI3346
I1
sI3347
I1
sI3348
I1
sI3349
I1
sI3350
I1
sI3351
I1
sI3352
I1
sI3353
I1
sI3354
I1
sI3355
I1
sI3356
I1
sI3357
I1
sI3358
I1
sI3359
I1
sI3360
I1
sI3361
I1
sI3362
I1
sI3363
I1
sI3364
I1
sI3365
I1
sI3366
I2
sI3367
I2
sI3368
I2
sI3369
I2
sI3370
I2
sI3371
I1
sI3372
I1
sI3373
I1
sI3374
I1
sI3375
I1
sI3376
I1
sI3377
I1
sI3378
I1
sI3379
I1
sI3380
I1
sI3381
I1
sI3382
I1
sI3383
I1
sI3384
I1
sI3385
I1
sI3386
I1
sI3387
I1
sI3388
I1
sI3389
I1
sI3390
I1
sI3391
I1
sI3392
I1
sI3393
I1
sI3394
I1
sI3395
I1
sI3396
I1
sI3397
I1
sI3398
I1
sI3399
I1
sI3400
I1
sI3401
I1
sI3402
I1
sI3403
I1
sI3404
I1
sI3405
I1
sI3406
I1
sI3407
I1
sI3408
I1
sI3409
I1
sI3410
I1
sI3411
I1
sI3412
I1
sI3413
I4
sI3414
I4
sI3415
I2
sI3416
I2
sI3417
I2
sI3418
I1
sI3419
I1
sI3420
I1
sI3421
I1
sI3422
I1
sI3423
I1
sI3424
I2
sI3425
I1
sI3426
I1
sI3427
I1
sI3428
I1
sI3429
I1
sI3430
I1
sI3431
I1
sI3432
I1
sI3433
I1
sI3434
I2
sI3435
I2
sI3436
I1
sI3437
I1
sI3438
I1
sI3439
I1
sI3440
I1
sI3441
I1
sI3442
I2
sI3443
I1
sI3444
I1
sI3445
I2
sI3446
I1
sI3447
I1
sI3448
I1
sI3449
I1
sI3450
I1
sI3451
I1
sI3452
I3
sI3453
I1
sI3454
I1
sI3455
I1
sI3456
I1
sI3457
I1
sI3458
I1
sI3459
I1
sI3460
I1
sI3461
I2
sI3462
I1
sI3463
I1
sI3464
I1
sI3465
I1
sI3466
I1
sI3467
I1
sI3468
I2
sI3469
I1
sI3470
I1
sI3471
I1
sI3472
I1
sI3473
I1
sI3474
I1
sI3475
I1
sI3476
I1
sI3477
I1
sI3478
I1
sI3479
I1
sI3480
I1
sI3481
I2
sI3482
I1
sI3483
I1
sI3484
I1
sI3485
I1
sI3486
I1
sI3487
I1
sI3488
I1
sI3489
I1
sI3490
I1
sI3491
I1
sI3492
I1
sI3493
I1
sI3494
I1
sI3495
I1
sI3496
I1
sI3497
I1
sI3498
I1
sI3499
I1
sI3500
I1
sI3501
I1
sI3502
I1
sI3503
I1
sI3504
I1
sI3505
I1
sI3506
I1
sI3507
I1
sI3508
I1
sI3509
I1
sI3510
I1
sI3511
I1
sI3512
I1
sI3513
I1
sI3514
I1
sI3515
I1
sI3516
I1
sI3517
I1
sI3518
I1
sI3519
I1
sI3520
I1
sI3521
I1
sI3522
I1
sI3523
I1
sI3524
I1
sI3525
I2
sI3526
I1
sI3527
I2
sI3528
I1
sI3529
I1
sI3530
I1
sI3531
I1
sI3532
I1
sI3533
I1
sI3534
I1
sI3535
I1
sI3536
I1
sI3537
I1
sI3538
I1
sI3539
I1
sI3540
I1
sI3541
I1
sI3542
I1
sI3543
I1
sI3544
I1
sI3545
I1
sI3546
I1
sI3547
I1
sI3548
I1
sI3549
I1
sI3550
I1
sI3551
I1
sI3552
I1
sI3553
I1
sI3554
I1
sI3555
I1
sI3556
I1
sI3557
I2
sI3558
I1
sI3559
I1
sI3560
I1
sI3561
I1
sI3562
I1
sI3563
I1
sI3564
I1
sI3565
I1
sI3566
I1
sI3567
I1
sI3568
I1
sI3569
I1
sI3570
I1
sI3571
I1
sI3572
I1
sI3573
I1
sI3574
I1
sI3575
I1
sI3576
I1
sI3577
I1
sI3578
I1
sI3579
I1
sI3580
I1
sI3581
I1
sI3582
I1
sI3583
I1
sI3584
I1
sI3585
I1
sI3586
I1
sI3587
I2
sI3588
I1
sI3589
I1
sI3590
I1
sI3591
I1
sI3592
I1
sI3593
I1
sI3594
I1
sI3595
I1
sI3596
I1
sI3597
I1
sI3598
I1
sI3599
I1
sI3600
I1
sI3601
I1
sI3602
I1
sI3603
I1
sI3604
I1
sI3605
I1
sI3606
I1
sI3607
I1
sI3608
I1
sI3609
I1
sI3610
I1
sI3611
I1
sI3612
I1
sI3613
I1
sI3614
I1
sI3615
I1
sI3616
I1
sI3617
I1
sI3618
I1
sI3619
I1
sI3620
I1
sI3621
I1
sI3622
I1
sI3623
I1
sI3624
I1
sI3625
I1
sI3626
I1
sI3627
I1
sI3628
I2
sI3629
I1
sI3630
I1
sI3631
I1
sI3632
I1
sI3633
I1
sI3634
I1
sI3635
I1
sI3636
I1
sI3637
I1
sI3638
I1
sI3639
I1
sI3640
I1
sI3641
I1
sI3642
I1
sI3643
I1
sI3644
I1
sI3645
I1
sI3646
I1
sI3647
I1
sI3648
I1
sI3649
I1
sI3650
I1
sI3651
I1
sI3652
I1
sI3653
I1
sI3654
I1
sI3655
I1
sI3656
I1
sI3657
I1
sI3658
I1
sI3659
I1
sI3660
I1
sI3661
I1
sI3662
I1
sI3663
I1
sI3664
I1
sI3665
I1
sI3666
I1
sI3667
I1
ssS'num_nnz'
p3679
I17254
sS'id2token'
p3680
(dp3681
sS'num_pos'
p3682
I17254
sb.